---
triple:          'arm64-apple-darwin'
binary-path:     a.out
relocations:
  - { offsetInCU: 0x3B, offset: 0x3B, size: 0x8, addend: 0x0, symName: _.str, symObjAddr: 0x2720, symBinAddr: 0x1000595E0, symSize: 0x0 }
  - { offsetInCU: 0x6B, offset: 0x6B, size: 0x8, addend: 0x0, symName: _.str.1, symObjAddr: 0x2760, symBinAddr: 0x100059620, symSize: 0x0 }
  - { offsetInCU: 0x2F77, offset: 0x2F77, size: 0x8, addend: 0x0, symName: __ZNSt3__124__put_character_sequenceB7v160006IcNS_11char_traitsIcEEEERNS_13basic_ostreamIT_T0_EES7_PKS4_m, symObjAddr: 0x710, symBinAddr: 0x100001878, symSize: 0x744 }
  - { offsetInCU: 0x48FF, offset: 0x48FF, size: 0x8, addend: 0x0, symName: __ZNSt3__1lsB7v160006INS_11char_traitsIcEEEERNS_13basic_ostreamIcT_EES6_PKc, symObjAddr: 0x304, symBinAddr: 0x10000146C, symSize: 0x48 }
  - { offsetInCU: 0x4945, offset: 0x4945, size: 0x8, addend: 0x0, symName: __ZNSt3__119__debug_db_insert_cB7v160006INS_12basic_stringIcNS_11char_traitsIcEENS_9allocatorIcEEEEEEvPT_, symObjAddr: 0x614, symBinAddr: 0x10000177C, symSize: 0x10 }
  - { offsetInCU: 0x4976, offset: 0x4976, size: 0x8, addend: 0x0, symName: __ZNSt3__118__constexpr_strlenB7v160006EPKc, symObjAddr: 0x6E0, symBinAddr: 0x100001848, symSize: 0x24 }
  - { offsetInCU: 0x49A2, offset: 0x49A2, size: 0x8, addend: 0x0, symName: __ZNSt3__116__pad_and_outputB7v160006IcNS_11char_traitsIcEEEENS_19ostreambuf_iteratorIT_T0_EES6_PKS4_S8_S8_RNS_8ios_baseES4_, symObjAddr: 0xEDC, symBinAddr: 0x100002044, symSize: 0x760 }
  - { offsetInCU: 0x4A7F, offset: 0x4A7F, size: 0x8, addend: 0x0, symName: __ZNSt3__112__to_addressB7v160006IcEEPT_S2_, symObjAddr: 0x1D80, symBinAddr: 0x100002EE8, symSize: 0x14 }
  - { offsetInCU: 0x4AE7, offset: 0x4AE7, size: 0x8, addend: 0x0, symName: __ZNSt3__19use_facetB7v160006INS_5ctypeIcEEEERKT_RKNS_6localeE, symObjAddr: 0x240C, symBinAddr: 0x100003574, symSize: 0x2C }
  - { offsetInCU: 0x74FA, offset: 0x74FA, size: 0x8, addend: 0x0, symName: _main, symObjAddr: 0x0, symBinAddr: 0x100001168, symSize: 0x304 }
  - { offsetInCU: 0x7518, offset: 0x7518, size: 0x8, addend: 0x0, symName: __ZNSt3__112basic_stringIcNS_11char_traitsIcEENS_9allocatorIcEEEC1B7v160006IDnEEPKc, symObjAddr: 0x34C, symBinAddr: 0x1000014B4, symSize: 0x34 }
  - { offsetInCU: 0x7554, offset: 0x7554, size: 0x8, addend: 0x0, symName: __ZNSt3__112basic_stringIcNS_11char_traitsIcEENS_9allocatorIcEEEC2B7v160006IDnEEPKc, symObjAddr: 0x380, symBinAddr: 0x1000014E8, symSize: 0x218 }
  - { offsetInCU: 0x7597, offset: 0x7597, size: 0x8, addend: 0x0, symName: __ZNSt3__117__compressed_pairINS_12basic_stringIcNS_11char_traitsIcEENS_9allocatorIcEEE5__repES5_EC1B7v160006INS_18__default_init_tagESA_EEOT_OT0_, symObjAddr: 0x598, symBinAddr: 0x100001700, symSize: 0x3C }
  - { offsetInCU: 0x75ED, offset: 0x75ED, size: 0x8, addend: 0x0, symName: __ZNSt3__111char_traitsIcE6lengthEPKc, symObjAddr: 0x5D4, symBinAddr: 0x10000173C, symSize: 0x40 }
  - { offsetInCU: 0x760F, offset: 0x760F, size: 0x8, addend: 0x0, symName: __ZNSt3__117__compressed_pairINS_12basic_stringIcNS_11char_traitsIcEENS_9allocatorIcEEE5__repES5_EC2B7v160006INS_18__default_init_tagESA_EEOT_OT0_, symObjAddr: 0x624, symBinAddr: 0x10000178C, symSize: 0x3C }
  - { offsetInCU: 0x7665, offset: 0x7665, size: 0x8, addend: 0x0, symName: __ZNSt3__122__compressed_pair_elemINS_12basic_stringIcNS_11char_traitsIcEENS_9allocatorIcEEE5__repELi0ELb0EEC2B7v160006ENS_18__default_init_tagE, symObjAddr: 0x660, symBinAddr: 0x1000017C8, symSize: 0x14 }
  - { offsetInCU: 0x7697, offset: 0x7697, size: 0x8, addend: 0x0, symName: __ZNSt3__122__compressed_pair_elemINS_9allocatorIcEELi1ELb1EEC2B7v160006ENS_18__default_init_tagE, symObjAddr: 0x674, symBinAddr: 0x1000017DC, symSize: 0x2C }
  - { offsetInCU: 0x76C9, offset: 0x76C9, size: 0x8, addend: 0x0, symName: __ZNSt3__19allocatorIcEC2B7v160006Ev, symObjAddr: 0x6A0, symBinAddr: 0x100001808, symSize: 0x2C }
  - { offsetInCU: 0x76F1, offset: 0x76F1, size: 0x8, addend: 0x0, symName: __ZNSt3__116__non_trivial_ifILb1ENS_9allocatorIcEEEC2B7v160006Ev, symObjAddr: 0x6CC, symBinAddr: 0x100001834, symSize: 0x14 }
  - { offsetInCU: 0x7737, offset: 0x7737, size: 0x8, addend: 0x0, symName: __ZNKSt3__113basic_ostreamIcNS_11char_traitsIcEEE6sentrycvbB7v160006Ev, symObjAddr: 0xE54, symBinAddr: 0x100001FBC, symSize: 0x88 }
  - { offsetInCU: 0x775B, offset: 0x775B, size: 0x8, addend: 0x0, symName: __ZNSt3__119ostreambuf_iteratorIcNS_11char_traitsIcEEEC1B7v160006ERNS_13basic_ostreamIcS2_EE, symObjAddr: 0x163C, symBinAddr: 0x1000027A4, symSize: 0x34 }
  - { offsetInCU: 0x7791, offset: 0x7791, size: 0x8, addend: 0x0, symName: __ZNKSt3__18ios_base5flagsB7v160006Ev, symObjAddr: 0x1670, symBinAddr: 0x1000027D8, symSize: 0x8C }
  - { offsetInCU: 0x77B7, offset: 0x77B7, size: 0x8, addend: 0x0, symName: __ZNKSt3__19basic_iosIcNS_11char_traitsIcEEE4fillB7v160006Ev, symObjAddr: 0x16FC, symBinAddr: 0x100002864, symSize: 0x198 }
  - { offsetInCU: 0x77DD, offset: 0x77DD, size: 0x8, addend: 0x0, symName: __ZNKSt3__119ostreambuf_iteratorIcNS_11char_traitsIcEEE6failedB7v160006Ev, symObjAddr: 0x1894, symBinAddr: 0x1000029FC, symSize: 0x6C }
  - { offsetInCU: 0x7801, offset: 0x7801, size: 0x8, addend: 0x0, symName: __ZNSt3__19basic_iosIcNS_11char_traitsIcEEE8setstateB7v160006Ej, symObjAddr: 0x1900, symBinAddr: 0x100002A68, symSize: 0x2C }
  - { offsetInCU: 0x7834, offset: 0x7834, size: 0x8, addend: 0x0, symName: __ZNKSt3__18ios_base5widthB7v160006Ev, symObjAddr: 0x192C, symBinAddr: 0x100002A94, symSize: 0x64 }
  - { offsetInCU: 0x785A, offset: 0x785A, size: 0x8, addend: 0x0, symName: __ZNSt3__115basic_streambufIcNS_11char_traitsIcEEE5sputnB7v160006EPKcl, symObjAddr: 0x1990, symBinAddr: 0x100002AF8, symSize: 0xC8 }
  - { offsetInCU: 0x789A, offset: 0x789A, size: 0x8, addend: 0x0, symName: __ZNSt3__112basic_stringIcNS_11char_traitsIcEENS_9allocatorIcEEEC1B7v160006Emc, symObjAddr: 0x1A58, symBinAddr: 0x100002BC0, symSize: 0x3C }
  - { offsetInCU: 0x78E0, offset: 0x78E0, size: 0x8, addend: 0x0, symName: __ZNSt3__112basic_stringIcNS_11char_traitsIcEENS_9allocatorIcEEE4dataB7v160006Ev, symObjAddr: 0x1A94, symBinAddr: 0x100002BFC, symSize: 0x28 }
  - { offsetInCU: 0x7904, offset: 0x7904, size: 0x8, addend: 0x0, symName: __ZNSt3__18ios_base5widthB7v160006El, symObjAddr: 0x1ABC, symBinAddr: 0x100002C24, symSize: 0xB8 }
  - { offsetInCU: 0x7948, offset: 0x7948, size: 0x8, addend: 0x0, symName: __ZNSt3__112basic_stringIcNS_11char_traitsIcEENS_9allocatorIcEEEC2B7v160006Emc, symObjAddr: 0x1B74, symBinAddr: 0x100002CDC, symSize: 0x20C }
  - { offsetInCU: 0x7991, offset: 0x7991, size: 0x8, addend: 0x0, symName: __ZNSt3__112basic_stringIcNS_11char_traitsIcEENS_9allocatorIcEEE13__get_pointerB7v160006Ev, symObjAddr: 0x1D94, symBinAddr: 0x100002EFC, symSize: 0x54 }
  - { offsetInCU: 0x79B5, offset: 0x79B5, size: 0x8, addend: 0x0, symName: __ZNKSt3__112basic_stringIcNS_11char_traitsIcEENS_9allocatorIcEEE9__is_longB7v160006Ev, symObjAddr: 0x1DE8, symBinAddr: 0x100002F50, symSize: 0xA4 }
  - { offsetInCU: 0x79D9, offset: 0x79D9, size: 0x8, addend: 0x0, symName: __ZNSt3__112basic_stringIcNS_11char_traitsIcEENS_9allocatorIcEEE18__get_long_pointerB7v160006Ev, symObjAddr: 0x1E8C, symBinAddr: 0x100002FF4, symSize: 0x6C }
  - { offsetInCU: 0x79FD, offset: 0x79FD, size: 0x8, addend: 0x0, symName: __ZNSt3__112basic_stringIcNS_11char_traitsIcEENS_9allocatorIcEEE19__get_short_pointerB7v160006Ev, symObjAddr: 0x1EF8, symBinAddr: 0x100003060, symSize: 0x28 }
  - { offsetInCU: 0x7A21, offset: 0x7A21, size: 0x8, addend: 0x0, symName: __ZNKSt3__117__compressed_pairINS_12basic_stringIcNS_11char_traitsIcEENS_9allocatorIcEEE5__repES5_E5firstB7v160006Ev, symObjAddr: 0x1F20, symBinAddr: 0x100003088, symSize: 0x24 }
  - { offsetInCU: 0x7A45, offset: 0x7A45, size: 0x8, addend: 0x0, symName: __ZNKSt3__122__compressed_pair_elemINS_12basic_stringIcNS_11char_traitsIcEENS_9allocatorIcEEE5__repELi0ELb0EE5__getB7v160006Ev, symObjAddr: 0x1F44, symBinAddr: 0x1000030AC, symSize: 0x14 }
  - { offsetInCU: 0x7A69, offset: 0x7A69, size: 0x8, addend: 0x0, symName: __ZNSt3__117__compressed_pairINS_12basic_stringIcNS_11char_traitsIcEENS_9allocatorIcEEE5__repES5_E5firstB7v160006Ev, symObjAddr: 0x1F58, symBinAddr: 0x1000030C0, symSize: 0x24 }
  - { offsetInCU: 0x7A8D, offset: 0x7A8D, size: 0x8, addend: 0x0, symName: __ZNSt3__122__compressed_pair_elemINS_12basic_stringIcNS_11char_traitsIcEENS_9allocatorIcEEE5__repELi0ELb0EE5__getB7v160006Ev, symObjAddr: 0x1F7C, symBinAddr: 0x1000030E4, symSize: 0x14 }
  - { offsetInCU: 0x7AB1, offset: 0x7AB1, size: 0x8, addend: 0x0, symName: __ZNSt3__114pointer_traitsIPcE10pointer_toB7v160006ERc, symObjAddr: 0x1F90, symBinAddr: 0x1000030F8, symSize: 0x14 }
  - { offsetInCU: 0x7AD3, offset: 0x7AD3, size: 0x8, addend: 0x0, symName: __ZNSt3__119ostreambuf_iteratorIcNS_11char_traitsIcEEEC2B7v160006ERNS_13basic_ostreamIcS2_EE, symObjAddr: 0x1FA4, symBinAddr: 0x10000310C, symSize: 0x10C }
  - { offsetInCU: 0x7B09, offset: 0x7B09, size: 0x8, addend: 0x0, symName: __ZNKSt3__19basic_iosIcNS_11char_traitsIcEEE5rdbufB7v160006Ev, symObjAddr: 0x20B0, symBinAddr: 0x100003218, symSize: 0x24 }
  - { offsetInCU: 0x7B2F, offset: 0x7B2F, size: 0x8, addend: 0x0, symName: __ZNKSt3__18ios_base5rdbufB7v160006Ev, symObjAddr: 0x20D4, symBinAddr: 0x10000323C, symSize: 0x64 }
  - { offsetInCU: 0x7B53, offset: 0x7B53, size: 0x8, addend: 0x0, symName: __ZNSt3__111char_traitsIcE11eq_int_typeEii, symObjAddr: 0x2138, symBinAddr: 0x1000032A0, symSize: 0x28 }
  - { offsetInCU: 0x7B83, offset: 0x7B83, size: 0x8, addend: 0x0, symName: __ZNSt3__111char_traitsIcE3eofEv, symObjAddr: 0x2160, symBinAddr: 0x1000032C8, symSize: 0x8 }
  - { offsetInCU: 0x7B96, offset: 0x7B96, size: 0x8, addend: 0x0, symName: __ZNKSt3__19basic_iosIcNS_11char_traitsIcEEE5widenB7v160006Ec, symObjAddr: 0x2168, symBinAddr: 0x1000032D0, symSize: 0x2A4 }
  - { offsetInCU: 0x7C04, offset: 0x7C04, size: 0x8, addend: 0x0, symName: __ZNKSt3__15ctypeIcE5widenB7v160006Ec, symObjAddr: 0x2438, symBinAddr: 0x1000035A0, symSize: 0xBC }
  - { offsetInCU: 0x7C37, offset: 0x7C37, size: 0x8, addend: 0x0, symName: __ZNSt3__18ios_base8setstateB7v160006Ej, symObjAddr: 0x24F4, symBinAddr: 0x10000365C, symSize: 0x9C }
  - { offsetInCU: 0x3B, offset: 0x7CF2, size: 0x8, addend: 0x0, symName: _.str, symObjAddr: 0x3BEA0, symBinAddr: 0x10005BF00, symSize: 0x0 }
  - { offsetInCU: 0x6B, offset: 0x7D22, size: 0x8, addend: 0x0, symName: _.str.1, symObjAddr: 0x3BF20, symBinAddr: 0x100059640, symSize: 0x0 }
  - { offsetInCU: 0x88, offset: 0x7D3F, size: 0x8, addend: 0x0, symName: _.str.2, symObjAddr: 0x3BF40, symBinAddr: 0x100059660, symSize: 0x0 }
  - { offsetInCU: 0xA5, offset: 0x7D5C, size: 0x8, addend: 0x0, symName: _.str.3, symObjAddr: 0x3BF60, symBinAddr: 0x100059680, symSize: 0x0 }
  - { offsetInCU: 0xC2, offset: 0x7D79, size: 0x8, addend: 0x0, symName: _.str.4, symObjAddr: 0x3BF80, symBinAddr: 0x1000596A0, symSize: 0x0 }
  - { offsetInCU: 0xD4, offset: 0x7D8B, size: 0x8, addend: 0x0, symName: _.str.5, symObjAddr: 0x3BFA0, symBinAddr: 0x1000596C0, symSize: 0x0 }
  - { offsetInCU: 0xE6, offset: 0x7D9D, size: 0x8, addend: 0x0, symName: _.str.6, symObjAddr: 0x3BFC0, symBinAddr: 0x1000596E0, symSize: 0x0 }
  - { offsetInCU: 0x17795, offset: 0x1F44C, size: 0x8, addend: 0x0, symName: __ZNSt3__17getlineB7v160006IcNS_11char_traitsIcEENS_9allocatorIcEEEERNS_13basic_istreamIT_T0_EES9_RNS_12basic_stringIS6_S7_T1_EE, symObjAddr: 0xA68, symBinAddr: 0x1000041F8, symSize: 0xD8 }
  - { offsetInCU: 0x17B5D, offset: 0x1F814, size: 0x8, addend: 0x0, symName: __ZNSt3__17getlineB7v160006IcNS_11char_traitsIcEENS_9allocatorIcEEEERNS_13basic_istreamIT_T0_EES9_RNS_12basic_stringIS6_S7_T1_EES6_, symObjAddr: 0x3400, symBinAddr: 0x100006B90, symSize: 0x688 }
  - { offsetInCU: 0x17C3A, offset: 0x1F8F1, size: 0x8, addend: 0x0, symName: __ZNSt3__15countB7v160006INS_19istreambuf_iteratorIcNS_11char_traitsIcEEEEcEENS_15iterator_traitsIT_E15difference_typeES6_S6_RKT0_, symObjAddr: 0x5810, symBinAddr: 0x100008FA0, symSize: 0x338 }
  - { offsetInCU: 0x17CAD, offset: 0x1F964, size: 0x8, addend: 0x0, symName: __ZNSt3__1eqB7v160006INS_9allocatorIcEEEEbRKNS_12basic_stringIcNS_11char_traitsIcEET_EES9_, symObjAddr: 0x6C88, symBinAddr: 0x10000A418, symSize: 0x234 }
  - { offsetInCU: 0x17D20, offset: 0x1F9D7, size: 0x8, addend: 0x0, symName: __ZNSt3__1neB7v160006IPNS_4pairIxbEEEEbRKNS_11__wrap_iterIT_EES8_, symObjAddr: 0xAF90, symBinAddr: 0x10000E720, symSize: 0x34 }
  - { offsetInCU: 0x17D63, offset: 0x1FA1A, size: 0x8, addend: 0x0, symName: __ZNSt3__13getB7v160006ILm0ExbEERNS_13tuple_elementIXT_ENS_4pairIT0_T1_EEE4typeERS5_, symObjAddr: 0xB024, symBinAddr: 0x10000E7B4, symSize: 0x24 }
  - { offsetInCU: 0x17DAD, offset: 0x1FA64, size: 0x8, addend: 0x0, symName: __ZNSt3__13getB7v160006ILm1ExbEERNS_13tuple_elementIXT_ENS_4pairIT0_T1_EEE4typeERS5_, symObjAddr: 0xB048, symBinAddr: 0x10000E7D8, symSize: 0x24 }
  - { offsetInCU: 0x17DF7, offset: 0x1FAAE, size: 0x8, addend: 0x0, symName: '__ZNSt3__111min_elementB7v160006INS_11__wrap_iterIPNS_4pairIxbEEEEZ9adv5FirstRKNS_12basic_stringIcNS_11char_traitsIcEENS_9allocatorIcEEEEE3$_0EET_SF_SF_T0_', symObjAddr: 0xB1B8, symBinAddr: 0x10000E948, symSize: 0x3F8 }
  - { offsetInCU: 0x17E5F, offset: 0x1FB16, size: 0x8, addend: 0x0, symName: __ZNSt3__13getB7v160006ILm0E8rangeNumbEERKNS_13tuple_elementIXT_ENS_4pairIT0_T1_EEE4typeERKS6_, symObjAddr: 0xD3E4, symBinAddr: 0x100010B74, symSize: 0x24 }
  - { offsetInCU: 0x17EA9, offset: 0x1FB60, size: 0x8, addend: 0x0, symName: __ZNSt3__13getB7v160006ILm1E8rangeNumbEERKNS_13tuple_elementIXT_ENS_4pairIT0_T1_EEE4typeERKS6_, symObjAddr: 0xD408, symBinAddr: 0x100010B98, symSize: 0x24 }
  - { offsetInCU: 0x17EF3, offset: 0x1FBAA, size: 0x8, addend: 0x0, symName: __ZNSt3__13getB7v160006ILm0ExLm3EEERKT0_RKNS_5arrayIS1_XT1_EEE, symObjAddr: 0xD42C, symBinAddr: 0x100010BBC, symSize: 0x14 }
  - { offsetInCU: 0x17F3F, offset: 0x1FBF6, size: 0x8, addend: 0x0, symName: __ZNSt3__13getB7v160006ILm1ExLm3EEERKT0_RKNS_5arrayIS1_XT1_EEE, symObjAddr: 0xD440, symBinAddr: 0x100010BD0, symSize: 0x18 }
  - { offsetInCU: 0x17F8B, offset: 0x1FC42, size: 0x8, addend: 0x0, symName: __ZNSt3__13getB7v160006ILm2ExLm3EEERKT0_RKNS_5arrayIS1_XT1_EEE, symObjAddr: 0xD458, symBinAddr: 0x100010BE8, symSize: 0x18 }
  - { offsetInCU: 0x17FD7, offset: 0x1FC8E, size: 0x8, addend: 0x0, symName: __ZNSt3__13maxB7v160006IxEERKT_S3_S3_, symObjAddr: 0xD4DC, symBinAddr: 0x100010C6C, symSize: 0x2C }
  - { offsetInCU: 0x1801A, offset: 0x1FCD1, size: 0x8, addend: 0x0, symName: __ZNSt3__13minB7v160006IxEERKT_S3_S3_, symObjAddr: 0xD508, symBinAddr: 0x100010C98, symSize: 0x2C }
  - { offsetInCU: 0x1805D, offset: 0x1FD14, size: 0x8, addend: 0x0, symName: '__ZNSt3__111min_elementB7v160006INS_11__wrap_iterIPNS_4pairI8rangeNumbEEEEZ8adv5LastRKNS_12basic_stringIcNS_11char_traitsIcEENS_9allocatorIcEEEEE3$_1EET_SG_SG_T0_', symObjAddr: 0xD718, symBinAddr: 0x100010EA8, symSize: 0x3F8 }
  - { offsetInCU: 0x180C5, offset: 0x1FD7C, size: 0x8, addend: 0x0, symName: __ZNSt3__1rsB7v160006IcNS_11char_traitsIcEENS_9allocatorIcEEEERNS_13basic_istreamIT_T0_EES9_RNS_12basic_stringIS6_S7_T1_EE, symObjAddr: 0x102E0, symBinAddr: 0x100013A70, symSize: 0x9C0 }
  - { offsetInCU: 0x1819E, offset: 0x1FE55, size: 0x8, addend: 0x0, symName: __ZNSt3__1eqB7v160006IPNS_4pairIxbEEEEbRKNS_11__wrap_iterIT_EES8_, symObjAddr: 0x11498, symBinAddr: 0x100014BE0, symSize: 0x48 }
  - { offsetInCU: 0x182AB, offset: 0x1FF62, size: 0x8, addend: 0x0, symName: '__ZNSt3__113__min_elementB7v160006IRZ9adv5FirstRKNS_12basic_stringIcNS_11char_traitsIcEENS_9allocatorIcEEEEE3$_0NS_11__wrap_iterIPNS_4pairIxbEEEESF_EET0_SG_T1_T_', symObjAddr: 0x1156C, symBinAddr: 0x100014CB4, symSize: 0x444 }
  - { offsetInCU: 0x1832C, offset: 0x1FFE3, size: 0x8, addend: 0x0, symName: '__ZNSt3__113__min_elementB7v160006IRZ9adv5FirstRKNS_12basic_stringIcNS_11char_traitsIcEENS_9allocatorIcEEEEE3$_0NS_11__wrap_iterIPNS_4pairIxbEEEESF_NS_10__identityEEET0_SH_T1_T_RT2_', symObjAddr: 0x119B0, symBinAddr: 0x1000150F8, symSize: 0x3F8 }
  - { offsetInCU: 0x183C5, offset: 0x2007C, size: 0x8, addend: 0x0, symName: '__ZNSt3__18__invokeB7v160006IRZ9adv5FirstRKNS_12basic_stringIcNS_11char_traitsIcEENS_9allocatorIcEEEEE3$_0JRNS_4pairIxbEESD_EEEDTclclsr3stdE7declvalIT_EEspclsr3stdE7declvalIT0_EEEEOSE_DpOSF_', symObjAddr: 0x11DA8, symBinAddr: 0x1000154F0, symSize: 0x38 }
  - { offsetInCU: 0x1842C, offset: 0x200E3, size: 0x8, addend: 0x0, symName: __ZNSt3__18__invokeB7v160006IRNS_10__identityEJRNS_4pairIxbEEEEEDTclclsr3stdE7declvalIT_EEspclsr3stdE7declvalIT0_EEEEOS6_DpOS7_, symObjAddr: 0x11DE0, symBinAddr: 0x100015528, symSize: 0x2C }
  - { offsetInCU: 0x184CE, offset: 0x20185, size: 0x8, addend: 0x0, symName: __ZNSt3__112__to_addressB7v160006INS_4pairIxbEEEEPT_S4_, symObjAddr: 0x11EE0, symBinAddr: 0x100015628, symSize: 0x14 }
  - { offsetInCU: 0x18503, offset: 0x201BA, size: 0x8, addend: 0x0, symName: __ZNSt3__13maxB7v160006IxNS_6__lessIxxEEEERKT_S5_S5_T0_, symObjAddr: 0x11F34, symBinAddr: 0x10001567C, symSize: 0x1E8 }
  - { offsetInCU: 0x1859E, offset: 0x20255, size: 0x8, addend: 0x0, symName: __ZNSt3__13minB7v160006IxNS_6__lessIxxEEEERKT_S5_S5_T0_, symObjAddr: 0x121D8, symBinAddr: 0x100015920, symSize: 0x1E8 }
  - { offsetInCU: 0x185FE, offset: 0x202B5, size: 0x8, addend: 0x0, symName: '__ZNSt3__113__min_elementB7v160006IRZ8adv5LastRKNS_12basic_stringIcNS_11char_traitsIcEENS_9allocatorIcEEEEE3$_1NS_11__wrap_iterIPNS_4pairI8rangeNumbEEEESG_EET0_SH_T1_T_', symObjAddr: 0x123C0, symBinAddr: 0x100015B08, symSize: 0x444 }
  - { offsetInCU: 0x1867F, offset: 0x20336, size: 0x8, addend: 0x0, symName: '__ZNSt3__113__min_elementB7v160006IRZ8adv5LastRKNS_12basic_stringIcNS_11char_traitsIcEENS_9allocatorIcEEEEE3$_1NS_11__wrap_iterIPNS_4pairI8rangeNumbEEEESG_NS_10__identityEEET0_SI_T1_T_RT2_', symObjAddr: 0x12804, symBinAddr: 0x100015F4C, symSize: 0x3F8 }
  - { offsetInCU: 0x18718, offset: 0x203CF, size: 0x8, addend: 0x0, symName: __ZNSt3__1eqB7v160006IPNS_4pairI8rangeNumbEEEEbRKNS_11__wrap_iterIT_EES9_, symObjAddr: 0x12BFC, symBinAddr: 0x100016344, symSize: 0x48 }
  - { offsetInCU: 0x1875B, offset: 0x20412, size: 0x8, addend: 0x0, symName: __ZNSt3__1neB7v160006IPNS_4pairI8rangeNumbEEEEbRKNS_11__wrap_iterIT_EES9_, symObjAddr: 0x12C44, symBinAddr: 0x10001638C, symSize: 0x34 }
  - { offsetInCU: 0x1879E, offset: 0x20455, size: 0x8, addend: 0x0, symName: '__ZNSt3__18__invokeB7v160006IRZ8adv5LastRKNS_12basic_stringIcNS_11char_traitsIcEENS_9allocatorIcEEEEE3$_1JRNS_4pairI8rangeNumbEESE_EEEDTclclsr3stdE7declvalIT_EEspclsr3stdE7declvalIT0_EEEEOSF_DpOSG_', symObjAddr: 0x12CE0, symBinAddr: 0x100016428, symSize: 0x38 }
  - { offsetInCU: 0x18805, offset: 0x204BC, size: 0x8, addend: 0x0, symName: __ZNSt3__18__invokeB7v160006IRNS_10__identityEJRNS_4pairI8rangeNumbEEEEEDTclclsr3stdE7declvalIT_EEspclsr3stdE7declvalIT0_EEEEOS7_DpOS8_, symObjAddr: 0x12D18, symBinAddr: 0x100016460, symSize: 0x2C }
  - { offsetInCU: 0x18857, offset: 0x2050E, size: 0x8, addend: 0x0, symName: __ZNSt3__112__to_addressB7v160006IKcEEPT_S3_, symObjAddr: 0x138BC, symBinAddr: 0x100016E84, symSize: 0x14 }
  - { offsetInCU: 0x18981, offset: 0x20638, size: 0x8, addend: 0x0, symName: __ZNSt3__17launderB7v160006INS_4pairIKNS_12basic_stringIcNS_11char_traitsIcEENS_9allocatorIcEEEEiEEEEPT_SB_, symObjAddr: 0x14CC4, symBinAddr: 0x100017C8C, symSize: 0x24 }
  - { offsetInCU: 0x189B8, offset: 0x2066F, size: 0x8, addend: 0x0, symName: __ZNSt3__19__launderB7v160006INS_4pairIKNS_12basic_stringIcNS_11char_traitsIcEENS_9allocatorIcEEEEiEEEEPT_SB_, symObjAddr: 0x14CE8, symBinAddr: 0x100017CB0, symSize: 0x14 }
  - { offsetInCU: 0x189F0, offset: 0x206A7, size: 0x8, addend: 0x0, symName: __ZNSt3__119__libcpp_deallocateB7v160006EPvmm, symObjAddr: 0x14D48, symBinAddr: 0x100017D10, symSize: 0x60 }
  - { offsetInCU: 0x18A57, offset: 0x2070E, size: 0x8, addend: 0x0, symName: __ZNSt3__124__is_overaligned_for_newB7v160006Em, symObjAddr: 0x14DA8, symBinAddr: 0x100017D70, symSize: 0x20 }
  - { offsetInCU: 0x18A86, offset: 0x2073D, size: 0x8, addend: 0x0, symName: __ZNSt3__127__do_deallocate_handle_sizeB7v160006IJSt11align_val_tEEEvPvmDpT_, symObjAddr: 0x14DC8, symBinAddr: 0x100017D90, symSize: 0x30 }
  - { offsetInCU: 0x18ADB, offset: 0x20792, size: 0x8, addend: 0x0, symName: __ZNSt3__127__do_deallocate_handle_sizeB7v160006IJEEEvPvmDpT_, symObjAddr: 0x14DF8, symBinAddr: 0x100017DC0, symSize: 0x28 }
  - { offsetInCU: 0x18B1B, offset: 0x207D2, size: 0x8, addend: 0x0, symName: __ZNSt3__124__libcpp_operator_deleteB7v160006IJPvSt11align_val_tEEEvDpT_, symObjAddr: 0x14E20, symBinAddr: 0x100017DE8, symSize: 0x2C }
  - { offsetInCU: 0x18B66, offset: 0x2081D, size: 0x8, addend: 0x0, symName: __ZNSt3__124__libcpp_operator_deleteB7v160006IJPvEEEvDpT_, symObjAddr: 0x14E4C, symBinAddr: 0x100017E14, symSize: 0x24 }
  - { offsetInCU: 0x18B9D, offset: 0x20854, size: 0x8, addend: 0x0, symName: __ZNSt3__110__str_findB7v160006IcmNS_11char_traitsIcEELm18446744073709551615EEET0_PKT_S3_S6_S3_S3_, symObjAddr: 0x151B0, symBinAddr: 0x100018178, symSize: 0xF8 }
  - { offsetInCU: 0x18C44, offset: 0x208FB, size: 0x8, addend: 0x0, symName: __ZNSt3__118__search_substringB7v160006IcNS_11char_traitsIcEEEEPKT_S5_S5_S5_S5_, symObjAddr: 0x152E8, symBinAddr: 0x100018270, symSize: 0x3F8 }
  - { offsetInCU: 0x18CE8, offset: 0x2099F, size: 0x8, addend: 0x0, symName: __ZNSt3__123__constexpr_char_memchrB7v160006EPKcim, symObjAddr: 0x15844, symBinAddr: 0x1000187CC, symSize: 0x34 }
  - { offsetInCU: 0x18D30, offset: 0x209E7, size: 0x8, addend: 0x0, symName: __ZNSt3__118__constexpr_memcmpB7v160006IcEEiPKT_S3_m, symObjAddr: 0x15878, symBinAddr: 0x100018800, symSize: 0x34 }
  - { offsetInCU: 0x18D81, offset: 0x20A38, size: 0x8, addend: 0x0, symName: __ZNSt3__125__debug_db_invalidate_allB7v160006INS_12basic_stringIcNS_11char_traitsIcEENS_9allocatorIcEEEEEEvPT_, symObjAddr: 0x16870, symBinAddr: 0x100019788, symSize: 0x10 }
  - { offsetInCU: 0x18F9F, offset: 0x20C56, size: 0x8, addend: 0x0, symName: __ZNSt3__122__make_exception_guardB7v160006INS_6vectorIiNS_9allocatorIiEEE16__destroy_vectorEEENS_28__exception_guard_exceptionsIT_EES7_, symObjAddr: 0x17154, symBinAddr: 0x10001A008, symSize: 0x278 }
  - { offsetInCU: 0x18FD8, offset: 0x20C8F, size: 0x8, addend: 0x0, symName: __ZNSt3__119__debug_db_insert_cB7v160006INS_6vectorIiNS_9allocatorIiEEEEEEvPT_, symObjAddr: 0x17400, symBinAddr: 0x10001A2B4, symSize: 0x10 }
  - { offsetInCU: 0x19009, offset: 0x20CC0, size: 0x8, addend: 0x0, symName: __ZNSt3__119__allocate_at_leastB7v160006INS_9allocatorIiEEEENS_19__allocation_resultINS_16allocator_traitsIT_E7pointerEEERS5_m, symObjAddr: 0x18604, symBinAddr: 0x10001B4B8, symSize: 0x28C }
  - { offsetInCU: 0x1904E, offset: 0x20D05, size: 0x8, addend: 0x0, symName: __ZNSt3__13minB7v160006ImEERKT_S3_S3_, symObjAddr: 0x189A0, symBinAddr: 0x10001B854, symSize: 0x2C }
  - { offsetInCU: 0x1927B, offset: 0x20F32, size: 0x8, addend: 0x0, symName: __ZNSt3__13minB7v160006ImNS_6__lessImmEEEERKT_S5_S5_T0_, symObjAddr: 0x18A2C, symBinAddr: 0x10001B8E0, symSize: 0x1E8 }
  - { offsetInCU: 0x19316, offset: 0x20FCD, size: 0x8, addend: 0x0, symName: __ZNSt3__120__throw_length_errorB7v160006EPKc, symObjAddr: 0x18D24, symBinAddr: 0x10001BBD8, symSize: 0x68 }
  - { offsetInCU: 0x1933F, offset: 0x20FF6, size: 0x8, addend: 0x0, symName: __ZNSt3__117__libcpp_allocateB7v160006Emm, symObjAddr: 0x18EE0, symBinAddr: 0x10001BD94, symSize: 0x60 }
  - { offsetInCU: 0x1939A, offset: 0x21051, size: 0x8, addend: 0x0, symName: __ZNSt3__121__libcpp_operator_newB7v160006IJmSt11align_val_tEEEPvDpT_, symObjAddr: 0x18F40, symBinAddr: 0x10001BDF4, symSize: 0x2C }
  - { offsetInCU: 0x193E8, offset: 0x2109F, size: 0x8, addend: 0x0, symName: __ZNSt3__121__libcpp_operator_newB7v160006IJmEEEPvDpT_, symObjAddr: 0x18F6C, symBinAddr: 0x10001BE20, symSize: 0x24 }
  - { offsetInCU: 0x19422, offset: 0x210D9, size: 0x8, addend: 0x0, symName: __ZNSt3__112__to_addressB7v160006IiEEPT_S2_, symObjAddr: 0x19178, symBinAddr: 0x10001C02C, symSize: 0x14 }
  - { offsetInCU: 0x19457, offset: 0x2110E, size: 0x8, addend: 0x0, symName: __ZNSt3__118__debug_db_erase_cB7v160006INS_6vectorIiNS_9allocatorIiEEEEEEvPT_, symObjAddr: 0x19CE0, symBinAddr: 0x10001CB94, symSize: 0x10 }
  - { offsetInCU: 0x19488, offset: 0x2113F, size: 0x8, addend: 0x0, symName: __ZNSt3__1neB7v160006IcNS_11char_traitsIcEEEEbRKNS_19istreambuf_iteratorIT_T0_EES8_, symObjAddr: 0x1A33C, symBinAddr: 0x10001D1F0, symSize: 0x34 }
  - { offsetInCU: 0x194D4, offset: 0x2118B, size: 0x8, addend: 0x0, symName: __ZNSt3__122__make_exception_guardB7v160006INS_6vectorIcNS_9allocatorIcEEE16__destroy_vectorEEENS_28__exception_guard_exceptionsIT_EES7_, symObjAddr: 0x1AD20, symBinAddr: 0x10001DBD4, symSize: 0x278 }
  - { offsetInCU: 0x1950D, offset: 0x211C4, size: 0x8, addend: 0x0, symName: __ZNSt3__119__debug_db_insert_cB7v160006INS_6vectorIcNS_9allocatorIcEEEEEEvPT_, symObjAddr: 0x1AFCC, symBinAddr: 0x10001DE80, symSize: 0x10 }
  - { offsetInCU: 0x1953E, offset: 0x211F5, size: 0x8, addend: 0x0, symName: __ZNSt3__119__allocate_at_leastB7v160006INS_9allocatorIcEEEENS_19__allocation_resultINS_16allocator_traitsIT_E7pointerEEERS5_m, symObjAddr: 0x1C164, symBinAddr: 0x10001F018, symSize: 0x28C }
  - { offsetInCU: 0x19583, offset: 0x2123A, size: 0x8, addend: 0x0, symName: __ZNSt3__118__debug_db_erase_cB7v160006INS_6vectorIcNS_9allocatorIcEEEEEEvPT_, symObjAddr: 0x1D38C, symBinAddr: 0x10002022C, symSize: 0x10 }
  - { offsetInCU: 0x195B4, offset: 0x2126B, size: 0x8, addend: 0x0, symName: __ZNSt3__122__make_exception_guardB7v160006INS_6vectorINS1_IcNS_9allocatorIcEEEENS2_IS4_EEE16__destroy_vectorEEENS_28__exception_guard_exceptionsIT_EES9_, symObjAddr: 0x1DCAC, symBinAddr: 0x100020B4C, symSize: 0x278 }
  - { offsetInCU: 0x195ED, offset: 0x212A4, size: 0x8, addend: 0x0, symName: __ZNSt3__119__debug_db_insert_cB7v160006INS_6vectorINS1_IcNS_9allocatorIcEEEENS2_IS4_EEEEEEvPT_, symObjAddr: 0x1DF58, symBinAddr: 0x100020DF8, symSize: 0x10 }
  - { offsetInCU: 0x1961E, offset: 0x212D5, size: 0x8, addend: 0x0, symName: __ZNSt3__119__allocate_at_leastB7v160006INS_9allocatorINS_6vectorIcNS1_IcEEEEEEEENS_19__allocation_resultINS_16allocator_traitsIT_E7pointerEEERS8_m, symObjAddr: 0x1F16C, symBinAddr: 0x10002200C, symSize: 0x28C }
  - { offsetInCU: 0x19663, offset: 0x2131A, size: 0x8, addend: 0x0, symName: __ZNSt3__112__to_addressB7v160006INS_6vectorIcNS_9allocatorIcEEEEEEPT_S6_, symObjAddr: 0x1F808, symBinAddr: 0x1000226A8, symSize: 0x14 }
  - { offsetInCU: 0x19698, offset: 0x2134F, size: 0x8, addend: 0x0, symName: __ZNSt3__130__uninitialized_allocator_copyB7v160006INS_9allocatorIcEEPcS3_S3_EET2_RT_T0_T1_S4_, symObjAddr: 0x2065C, symBinAddr: 0x1000234FC, symSize: 0x520 }
  - { offsetInCU: 0x19744, offset: 0x213FB, size: 0x8, addend: 0x0, symName: __ZNSt3__122__make_exception_guardB7v160006INS_29_AllocatorDestroyRangeReverseINS_9allocatorIcEEPcEEEENS_28__exception_guard_exceptionsIT_EES7_, symObjAddr: 0x20B7C, symBinAddr: 0x100023A1C, symSize: 0x1F8 }
  - { offsetInCU: 0x1977B, offset: 0x21432, size: 0x8, addend: 0x0, symName: __ZNSt3__119__allocator_destroyB7v160006INS_9allocatorIcEENS_16reverse_iteratorIPcEES5_EEvRT_T0_T1_, symObjAddr: 0x215D4, symBinAddr: 0x100024474, symSize: 0x2B8 }
  - { offsetInCU: 0x197E8, offset: 0x2149F, size: 0x8, addend: 0x0, symName: __ZNSt3__1neB7v160006IPcS1_EEbRKNS_16reverse_iteratorIT_EERKNS2_IT0_EE, symObjAddr: 0x218C0, symBinAddr: 0x100024760, symSize: 0x48 }
  - { offsetInCU: 0x19834, offset: 0x214EB, size: 0x8, addend: 0x0, symName: __ZNSt3__112__to_addressB7v160006INS_16reverse_iteratorIPcEEvEENS_5decayIDTclsr19__to_address_helperIT_EE6__callclsr3stdE7declvalIRKS5_EEEEE4typeES7_, symObjAddr: 0x21908, symBinAddr: 0x1000247A8, symSize: 0x24 }
  - { offsetInCU: 0x19895, offset: 0x2154C, size: 0x8, addend: 0x0, symName: __ZNSt3__118__debug_db_erase_cB7v160006INS_6vectorINS1_IcNS_9allocatorIcEEEENS2_IS4_EEEEEEvPT_, symObjAddr: 0x222F4, symBinAddr: 0x100025194, symSize: 0x10 }
  - { offsetInCU: 0x198C6, offset: 0x2157D, size: 0x8, addend: 0x0, symName: __ZNSt3__122__make_exception_guardB7v160006INS_6vectorINS1_IiNS_9allocatorIiEEEENS2_IS4_EEE16__destroy_vectorEEENS_28__exception_guard_exceptionsIT_EES9_, symObjAddr: 0x22F1C, symBinAddr: 0x100025DBC, symSize: 0x278 }
  - { offsetInCU: 0x198FF, offset: 0x215B6, size: 0x8, addend: 0x0, symName: __ZNSt3__119__debug_db_insert_cB7v160006INS_6vectorINS1_IiNS_9allocatorIiEEEENS2_IS4_EEEEEEvPT_, symObjAddr: 0x231C8, symBinAddr: 0x100026068, symSize: 0x10 }
  - { offsetInCU: 0x19930, offset: 0x215E7, size: 0x8, addend: 0x0, symName: __ZNSt3__119__allocate_at_leastB7v160006INS_9allocatorINS_6vectorIiNS1_IiEEEEEEEENS_19__allocation_resultINS_16allocator_traitsIT_E7pointerEEERS8_m, symObjAddr: 0x243DC, symBinAddr: 0x10002727C, symSize: 0x28C }
  - { offsetInCU: 0x19975, offset: 0x2162C, size: 0x8, addend: 0x0, symName: __ZNSt3__112__to_addressB7v160006INS_6vectorIiNS_9allocatorIiEEEEEEPT_S6_, symObjAddr: 0x24A78, symBinAddr: 0x100027918, symSize: 0x14 }
  - { offsetInCU: 0x199AA, offset: 0x21661, size: 0x8, addend: 0x0, symName: __ZNSt3__130__uninitialized_allocator_copyB7v160006INS_9allocatorIiEEPiS3_S3_EET2_RT_T0_T1_S4_, symObjAddr: 0x2581C, symBinAddr: 0x1000286BC, symSize: 0x520 }
  - { offsetInCU: 0x19A56, offset: 0x2170D, size: 0x8, addend: 0x0, symName: __ZNSt3__122__make_exception_guardB7v160006INS_29_AllocatorDestroyRangeReverseINS_9allocatorIiEEPiEEEENS_28__exception_guard_exceptionsIT_EES7_, symObjAddr: 0x25D3C, symBinAddr: 0x100028BDC, symSize: 0x1F8 }
  - { offsetInCU: 0x19A8D, offset: 0x21744, size: 0x8, addend: 0x0, symName: __ZNSt3__119__allocator_destroyB7v160006INS_9allocatorIiEENS_16reverse_iteratorIPiEES5_EEvRT_T0_T1_, symObjAddr: 0x2679C, symBinAddr: 0x10002963C, symSize: 0x2B8 }
  - { offsetInCU: 0x19AFA, offset: 0x217B1, size: 0x8, addend: 0x0, symName: __ZNSt3__1neB7v160006IPiS1_EEbRKNS_16reverse_iteratorIT_EERKNS2_IT0_EE, symObjAddr: 0x26A88, symBinAddr: 0x100029928, symSize: 0x48 }
  - { offsetInCU: 0x19B46, offset: 0x217FD, size: 0x8, addend: 0x0, symName: __ZNSt3__112__to_addressB7v160006INS_16reverse_iteratorIPiEEvEENS_5decayIDTclsr19__to_address_helperIT_EE6__callclsr3stdE7declvalIRKS5_EEEEE4typeES7_, symObjAddr: 0x26AD0, symBinAddr: 0x100029970, symSize: 0x24 }
  - { offsetInCU: 0x19BA7, offset: 0x2185E, size: 0x8, addend: 0x0, symName: __ZNSt3__118__debug_db_erase_cB7v160006INS_6vectorINS1_IiNS_9allocatorIiEEEENS2_IS4_EEEEEEvPT_, symObjAddr: 0x274BC, symBinAddr: 0x10002A35C, symSize: 0x10 }
  - { offsetInCU: 0x19BD8, offset: 0x2188F, size: 0x8, addend: 0x0, symName: __ZNSt3__13maxB7v160006ImEERKT_S3_S3_, symObjAddr: 0x28AE0, symBinAddr: 0x10002B980, symSize: 0x2C }
  - { offsetInCU: 0x19C1B, offset: 0x218D2, size: 0x8, addend: 0x0, symName: __ZNSt3__13maxB7v160006ImNS_6__lessImmEEEERKT_S5_S5_T0_, symObjAddr: 0x28B0C, symBinAddr: 0x10002B9AC, symSize: 0x1E8 }
  - { offsetInCU: 0x19C7B, offset: 0x21932, size: 0x8, addend: 0x0, symName: __ZNSt3__142__uninitialized_allocator_move_if_noexceptB7v160006INS_9allocatorIiEENS_16reverse_iteratorIPiEES5_ivEET1_RT_T0_S9_S6_, symObjAddr: 0x29404, symBinAddr: 0x10002C2A4, symSize: 0x4A8 }
  - { offsetInCU: 0x19D07, offset: 0x219BE, size: 0x8, addend: 0x0, symName: __ZNSt3__14swapB7v160006IPiEENS_9enable_ifIXaasr21is_move_constructibleIT_EE5valuesr18is_move_assignableIS3_EE5valueEvE4typeERS3_S6_, symObjAddr: 0x298AC, symBinAddr: 0x10002C74C, symSize: 0x134 }
  - { offsetInCU: 0x19D59, offset: 0x21A10, size: 0x8, addend: 0x0, symName: __ZNSt3__125__debug_db_invalidate_allB7v160006INS_6vectorIiNS_9allocatorIiEEEEEEvPT_, symObjAddr: 0x299E0, symBinAddr: 0x10002C880, symSize: 0x10 }
  - { offsetInCU: 0x19D8A, offset: 0x21A41, size: 0x8, addend: 0x0, symName: __ZNSt3__14moveB7v160006INS_16reverse_iteratorIPiEES3_EET0_T_S5_S4_, symObjAddr: 0x299F0, symBinAddr: 0x10002C890, symSize: 0x4B0 }
  - { offsetInCU: 0x19DF1, offset: 0x21AA8, size: 0x8, addend: 0x0, symName: __ZNSt3__16__moveB7v160006INS_17_ClassicAlgPolicyENS_16reverse_iteratorIPiEES4_S4_EENS_4pairIT0_T2_EES6_T1_S7_, symObjAddr: 0x29EA0, symBinAddr: 0x10002CD40, symSize: 0x424 }
  - { offsetInCU: 0x19E69, offset: 0x21B20, size: 0x8, addend: 0x0, symName: __ZNSt3__123__dispatch_copy_or_moveB7v160006INS_17_ClassicAlgPolicyENS_11__move_loopIS1_EENS_14__move_trivialENS_16reverse_iteratorIPiEES7_S7_EENS_4pairIT2_T4_EES9_T3_SA_, symObjAddr: 0x2A2C4, symBinAddr: 0x10002D164, symSize: 0x424 }
  - { offsetInCU: 0x19EF3, offset: 0x21BAA, size: 0x8, addend: 0x0, symName: __ZNSt3__121__unwrap_and_dispatchB7v160006INS_10__overloadINS_11__move_loopINS_17_ClassicAlgPolicyEEENS_14__move_trivialEEENS_16reverse_iteratorIPiEES9_S9_Li0EEENS_4pairIT0_T2_EESB_T1_SC_, symObjAddr: 0x2A6E8, symBinAddr: 0x10002D588, symSize: 0x880 }
  - { offsetInCU: 0x19F9A, offset: 0x21C51, size: 0x8, addend: 0x0, symName: __ZNSt3__114__unwrap_rangeB7v160006INS_16reverse_iteratorIPiEES3_EENS_4pairIT0_S5_EET_S7_, symObjAddr: 0x2AF68, symBinAddr: 0x10002DE08, symSize: 0x448 }
  - { offsetInCU: 0x1A11E, offset: 0x21DD5, size: 0x8, addend: 0x0, symName: __ZNSt3__113__unwrap_iterB7v160006INS_16reverse_iteratorIPiEENS_18__unwrap_iter_implIS3_Lb0EEELi0EEEDTclsrT0_8__unwrapclsr3stdE7declvalIT_EEEES7_, symObjAddr: 0x2B7A8, symBinAddr: 0x10002E648, symSize: 0x2EC }
  - { offsetInCU: 0x1A167, offset: 0x21E1E, size: 0x8, addend: 0x0, symName: __ZNSt3__19make_pairB7v160006INS_16reverse_iteratorIPiEES3_EENS_4pairINS_18__unwrap_ref_decayIT_E4typeENS5_IT0_E4typeEEEOS6_OS9_, symObjAddr: 0x2BA94, symBinAddr: 0x10002E934, symSize: 0x38 }
  - { offsetInCU: 0x1A1B6, offset: 0x21E6D, size: 0x8, addend: 0x0, symName: __ZNSt3__114__rewrap_rangeB7v160006INS_16reverse_iteratorIPiEES3_EET_S4_T0_, symObjAddr: 0x2BACC, symBinAddr: 0x10002E96C, symSize: 0x3D4 }
  - { offsetInCU: 0x1A20A, offset: 0x21EC1, size: 0x8, addend: 0x0, symName: __ZNSt3__113__rewrap_iterB7v160006INS_16reverse_iteratorIPiEES3_NS_18__unwrap_iter_implIS3_Lb0EEEEET_S6_T0_, symObjAddr: 0x2BEA0, symBinAddr: 0x10002ED40, symSize: 0x3E8 }
  - { offsetInCU: 0x1A31B, offset: 0x21FD2, size: 0x8, addend: 0x0, symName: __ZNSt3__119__debug_db_insert_cB7v160006INS_6vectorINS_4pairIxbEENS_9allocatorIS3_EEEEEEvPT_, symObjAddr: 0x2CF74, symBinAddr: 0x10002FE14, symSize: 0x10 }
  - { offsetInCU: 0x1A34C, offset: 0x22003, size: 0x8, addend: 0x0, symName: __ZNSt3__118__debug_db_erase_cB7v160006INS_6vectorINS_4pairIxbEENS_9allocatorIS3_EEEEEEvPT_, symObjAddr: 0x2D660, symBinAddr: 0x100030500, symSize: 0x10 }
  - { offsetInCU: 0x1A37D, offset: 0x22034, size: 0x8, addend: 0x0, symName: __ZNSt3__119__allocate_at_leastB7v160006INS_9allocatorINS_4pairIxbEEEEEENS_19__allocation_resultINS_16allocator_traitsIT_E7pointerEEERS7_m, symObjAddr: 0x2FDE4, symBinAddr: 0x100032C84, symSize: 0x28C }
  - { offsetInCU: 0x1A3C2, offset: 0x22079, size: 0x8, addend: 0x0, symName: __ZNSt3__142__uninitialized_allocator_move_if_noexceptB7v160006INS_9allocatorINS_4pairIxbEEEENS_16reverse_iteratorIPS3_EES7_S7_EET2_RT_T0_T1_S8_, symObjAddr: 0x30280, symBinAddr: 0x100033120, symSize: 0x544 }
  - { offsetInCU: 0x1A477, offset: 0x2212E, size: 0x8, addend: 0x0, symName: __ZNSt3__14swapB7v160006IPNS_4pairIxbEEEENS_9enable_ifIXaasr21is_move_constructibleIT_EE5valuesr18is_move_assignableIS5_EE5valueEvE4typeERS5_S8_, symObjAddr: 0x3085C, symBinAddr: 0x1000336FC, symSize: 0x134 }
  - { offsetInCU: 0x1A4C9, offset: 0x22180, size: 0x8, addend: 0x0, symName: __ZNSt3__125__debug_db_invalidate_allB7v160006INS_6vectorINS_4pairIxbEENS_9allocatorIS3_EEEEEEvPT_, symObjAddr: 0x30A50, symBinAddr: 0x1000338F0, symSize: 0x10 }
  - { offsetInCU: 0x1A4FA, offset: 0x221B1, size: 0x8, addend: 0x0, symName: __ZNSt3__122__make_exception_guardB7v160006INS_29_AllocatorDestroyRangeReverseINS_9allocatorINS_4pairIxbEEEENS_16reverse_iteratorIPS4_EEEEEENS_28__exception_guard_exceptionsIT_EESB_, symObjAddr: 0x30A60, symBinAddr: 0x100033900, symSize: 0x1F8 }
  - { offsetInCU: 0x1A531, offset: 0x221E8, size: 0x8, addend: 0x0, symName: __ZNSt3__1neB7v160006IPNS_4pairIxbEES3_EEbRKNS_16reverse_iteratorIT_EERKNS4_IT0_EE, symObjAddr: 0x30C9C, symBinAddr: 0x100033B3C, symSize: 0x48 }
  - { offsetInCU: 0x1A57D, offset: 0x22234, size: 0x8, addend: 0x0, symName: __ZNSt3__112__to_addressB7v160006INS_16reverse_iteratorIPNS_4pairIxbEEEEvEENS_5decayIDTclsr19__to_address_helperIT_EE6__callclsr3stdE7declvalIRKS7_EEEEE4typeES9_, symObjAddr: 0x30D18, symBinAddr: 0x100033BB8, symSize: 0x24 }
  - { offsetInCU: 0x1A5DE, offset: 0x22295, size: 0x8, addend: 0x0, symName: __ZNSt3__119__allocator_destroyB7v160006INS_9allocatorINS_4pairIxbEEEENS_16reverse_iteratorINS5_IPS3_EEEES8_EEvRT_T0_T1_, symObjAddr: 0x315B0, symBinAddr: 0x100034450, symSize: 0x70 }
  - { offsetInCU: 0x1A644, offset: 0x222FB, size: 0x8, addend: 0x0, symName: __ZNSt3__1neB7v160006INS_16reverse_iteratorIPNS_4pairIxbEEEES5_EEbRKNS1_IT_EERKNS1_IT0_EE, symObjAddr: 0x31868, symBinAddr: 0x100034708, symSize: 0x2CC }
  - { offsetInCU: 0x1A692, offset: 0x22349, size: 0x8, addend: 0x0, symName: __ZNSt3__112__to_addressB7v160006INS_16reverse_iteratorINS1_IPNS_4pairIxbEEEEEEvEENS_5decayIDTclsr19__to_address_helperIT_EE6__callclsr3stdE7declvalIRKS8_EEEEE4typeESA_, symObjAddr: 0x31B34, symBinAddr: 0x1000349D4, symSize: 0x24 }
  - { offsetInCU: 0x1A6F3, offset: 0x223AA, size: 0x8, addend: 0x0, symName: __ZNSt3__119__debug_db_insert_cB7v160006INS_6vectorINS_4pairI8rangeNumbEENS_9allocatorIS4_EEEEEEvPT_, symObjAddr: 0x32CC4, symBinAddr: 0x100035B64, symSize: 0x10 }
  - { offsetInCU: 0x1A724, offset: 0x223DB, size: 0x8, addend: 0x0, symName: __ZNSt3__118__debug_db_erase_cB7v160006INS_6vectorINS_4pairI8rangeNumbEENS_9allocatorIS4_EEEEEEvPT_, symObjAddr: 0x333CC, symBinAddr: 0x10003626C, symSize: 0x10 }
  - { offsetInCU: 0x1A755, offset: 0x2240C, size: 0x8, addend: 0x0, symName: __ZNSt3__112__to_addressB7v160006INS_4pairI8rangeNumbEEEEPT_S5_, symObjAddr: 0x336C4, symBinAddr: 0x100036564, symSize: 0x14 }
  - { offsetInCU: 0x1A78A, offset: 0x22441, size: 0x8, addend: 0x0, symName: __ZNSt3__119__allocate_at_leastB7v160006INS_9allocatorINS_4pairI8rangeNumbEEEEEENS_19__allocation_resultINS_16allocator_traitsIT_E7pointerEEERS8_m, symObjAddr: 0x35BA0, symBinAddr: 0x100038A40, symSize: 0x28C }
  - { offsetInCU: 0x1A7CF, offset: 0x22486, size: 0x8, addend: 0x0, symName: __ZNSt3__142__uninitialized_allocator_move_if_noexceptB7v160006INS_9allocatorINS_4pairI8rangeNumbEEEENS_16reverse_iteratorIPS4_EES8_S8_EET2_RT_T0_T1_S9_, symObjAddr: 0x36040, symBinAddr: 0x100038EE0, symSize: 0x544 }
  - { offsetInCU: 0x1A884, offset: 0x2253B, size: 0x8, addend: 0x0, symName: __ZNSt3__14swapB7v160006IPNS_4pairI8rangeNumbEEEENS_9enable_ifIXaasr21is_move_constructibleIT_EE5valuesr18is_move_assignableIS6_EE5valueEvE4typeERS6_S9_, symObjAddr: 0x3661C, symBinAddr: 0x1000394BC, symSize: 0x134 }
  - { offsetInCU: 0x1A8D6, offset: 0x2258D, size: 0x8, addend: 0x0, symName: __ZNSt3__125__debug_db_invalidate_allB7v160006INS_6vectorINS_4pairI8rangeNumbEENS_9allocatorIS4_EEEEEEvPT_, symObjAddr: 0x3682C, symBinAddr: 0x1000396CC, symSize: 0x10 }
  - { offsetInCU: 0x1A907, offset: 0x225BE, size: 0x8, addend: 0x0, symName: __ZNSt3__122__make_exception_guardB7v160006INS_29_AllocatorDestroyRangeReverseINS_9allocatorINS_4pairI8rangeNumbEEEENS_16reverse_iteratorIPS5_EEEEEENS_28__exception_guard_exceptionsIT_EESC_, symObjAddr: 0x3683C, symBinAddr: 0x1000396DC, symSize: 0x1F8 }
  - { offsetInCU: 0x1A93E, offset: 0x225F5, size: 0x8, addend: 0x0, symName: __ZNSt3__1neB7v160006IPNS_4pairI8rangeNumbEES4_EEbRKNS_16reverse_iteratorIT_EERKNS5_IT0_EE, symObjAddr: 0x36A78, symBinAddr: 0x100039918, symSize: 0x48 }
  - { offsetInCU: 0x1A98A, offset: 0x22641, size: 0x8, addend: 0x0, symName: __ZNSt3__112__to_addressB7v160006INS_16reverse_iteratorIPNS_4pairI8rangeNumbEEEEvEENS_5decayIDTclsr19__to_address_helperIT_EE6__callclsr3stdE7declvalIRKS8_EEEEE4typeESA_, symObjAddr: 0x36AF4, symBinAddr: 0x100039994, symSize: 0x24 }
  - { offsetInCU: 0x1A9EB, offset: 0x226A2, size: 0x8, addend: 0x0, symName: __ZNSt3__119__allocator_destroyB7v160006INS_9allocatorINS_4pairI8rangeNumbEEEENS_16reverse_iteratorINS6_IPS4_EEEES9_EEvRT_T0_T1_, symObjAddr: 0x3738C, symBinAddr: 0x10003A22C, symSize: 0x70 }
  - { offsetInCU: 0x1AA51, offset: 0x22708, size: 0x8, addend: 0x0, symName: __ZNSt3__1neB7v160006INS_16reverse_iteratorIPNS_4pairI8rangeNumbEEEES6_EEbRKNS1_IT_EERKNS1_IT0_EE, symObjAddr: 0x37644, symBinAddr: 0x10003A4E4, symSize: 0x2CC }
  - { offsetInCU: 0x1AA9F, offset: 0x22756, size: 0x8, addend: 0x0, symName: __ZNSt3__112__to_addressB7v160006INS_16reverse_iteratorINS1_IPNS_4pairI8rangeNumbEEEEEEvEENS_5decayIDTclsr19__to_address_helperIT_EE6__callclsr3stdE7declvalIRKS9_EEEEE4typeESB_, symObjAddr: 0x37910, symBinAddr: 0x10003A7B0, symSize: 0x24 }
  - { offsetInCU: 0x1AB00, offset: 0x227B7, size: 0x8, addend: 0x0, symName: __ZNSt3__116__swap_allocatorB7v160006INS_9allocatorINS_4pairI8rangeNumbEEEEEEvRT_S7_NS_17integral_constantIbLb0EEE, symObjAddr: 0x38E4C, symBinAddr: 0x10003BCEC, symSize: 0x14 }
  - { offsetInCU: 0x1AB41, offset: 0x227F8, size: 0x8, addend: 0x0, symName: __ZNSt3__115__debug_db_swapB7v160006INS_6vectorINS_4pairI8rangeNumbEENS_9allocatorIS4_EEEEEEvPT_S9_, symObjAddr: 0x38E60, symBinAddr: 0x10003BD00, symSize: 0x14 }
  - { offsetInCU: 0x1B23B, offset: 0x22EF2, size: 0x8, addend: 0x0, symName: __ZSt28__throw_bad_array_new_lengthB7v160006v, symObjAddr: 0x18EA8, symBinAddr: 0x10001BD5C, symSize: 0x38 }
  - { offsetInCU: 0x1C2BA, offset: 0x23F71, size: 0x8, addend: 0x0, symName: __ZNSt3__16vectorIiNS_9allocatorIiEEE26__swap_out_circular_bufferERNS_14__split_bufferIiRS2_EE, symObjAddr: 0x28540, symBinAddr: 0x10002B3E0, symSize: 0x574 }
  - { offsetInCU: 0x1C2FC, offset: 0x23FB3, size: 0x8, addend: 0x0, symName: __Z3powB7v160006IiiENSt3__19enable_ifIXaasr3std13is_arithmeticIT_EE5valuesr3std13is_arithmeticIT0_EE5valueENS0_9__promoteIS2_S3_vEEE4type4typeES2_S3_, symObjAddr: 0x81D0, symBinAddr: 0x10000B960, symSize: 0x44 }
  - { offsetInCU: 0x1C508, offset: 0x241BF, size: 0x8, addend: 0x0, symName: __ZNSt3__16vectorINS_4pairIxbEENS_9allocatorIS2_EEE26__swap_out_circular_bufferERNS_14__split_bufferIS2_RS4_EE, symObjAddr: 0x2EF34, symBinAddr: 0x100031DD4, symSize: 0x574 }
  - { offsetInCU: 0x1C790, offset: 0x24447, size: 0x8, addend: 0x0, symName: __ZNSt3__16vectorINS_4pairI8rangeNumbEENS_9allocatorIS3_EEE26__swap_out_circular_bufferERNS_14__split_bufferIS3_RS5_EE, symObjAddr: 0x34CDC, symBinAddr: 0x100037B7C, symSize: 0x574 }
  - { offsetInCU: 0x1DD4A, offset: 0x25A01, size: 0x8, addend: 0x0, symName: __Z7isdigiti, symObjAddr: 0xBBC, symBinAddr: 0x10000434C, symSize: 0x28 }
  - { offsetInCU: 0x1E562, offset: 0x26219, size: 0x8, addend: 0x0, symName: __Z9adv1FirstRKNSt3__112basic_stringIcNS_11char_traitsIcEENS_9allocatorIcEEEE, symObjAddr: 0x0, symBinAddr: 0x100003790, symSize: 0x790 }
  - { offsetInCU: 0x1E6A8, offset: 0x2635F, size: 0x8, addend: 0x0, symName: __ZNSt3__114basic_ifstreamIcNS_11char_traitsIcEEEC1ERKNS_12basic_stringIcS2_NS_9allocatorIcEEEEj, symObjAddr: 0x790, symBinAddr: 0x100003F20, symSize: 0x2AC }
  - { offsetInCU: 0x1E6F1, offset: 0x263A8, size: 0x8, addend: 0x0, symName: __ZNSt3__112basic_stringIcNS_11char_traitsIcEENS_9allocatorIcEEEC1B7v160006Ev, symObjAddr: 0xA3C, symBinAddr: 0x1000041CC, symSize: 0x2C }
  - { offsetInCU: 0x1E719, offset: 0x263D0, size: 0x8, addend: 0x0, symName: __ZNKSt3__19basic_iosIcNS_11char_traitsIcEEEcvbB7v160006Ev, symObjAddr: 0xB40, symBinAddr: 0x1000042D0, symSize: 0x2C }
  - { offsetInCU: 0x1E73D, offset: 0x263F4, size: 0x8, addend: 0x0, symName: __ZNSt3__112basic_stringIcNS_11char_traitsIcEENS_9allocatorIcEEEaSB7v160006EPKc, symObjAddr: 0xB6C, symBinAddr: 0x1000042FC, symSize: 0x2C }
  - { offsetInCU: 0x1E770, offset: 0x26427, size: 0x8, addend: 0x0, symName: __ZNKSt3__112basic_stringIcNS_11char_traitsIcEENS_9allocatorIcEEE6lengthB7v160006Ev, symObjAddr: 0xB98, symBinAddr: 0x100004328, symSize: 0x24 }
  - { offsetInCU: 0x1E794, offset: 0x2644B, size: 0x8, addend: 0x0, symName: __ZNSt3__112basic_stringIcNS_11char_traitsIcEENS_9allocatorIcEEEixB7v160006Em, symObjAddr: 0xBE4, symBinAddr: 0x100004374, symSize: 0x30 }
  - { offsetInCU: 0x1E7C7, offset: 0x2647E, size: 0x8, addend: 0x0, symName: __ZNSt3__112basic_stringIcNS_11char_traitsIcEENS_9allocatorIcEEEpLB7v160006Ec, symObjAddr: 0xC14, symBinAddr: 0x1000043A4, symSize: 0x34 }
  - { offsetInCU: 0x1E7FF, offset: 0x264B6, size: 0x8, addend: 0x0, symName: __ZNSt3__114basic_ifstreamIcNS_11char_traitsIcEEED1Ev, symObjAddr: 0xC48, symBinAddr: 0x1000043D8, symSize: 0x40 }
  - { offsetInCU: 0x1E82A, offset: 0x264E1, size: 0x8, addend: 0x0, symName: __Z8adv1LastRKNSt3__112basic_stringIcNS_11char_traitsIcEENS_9allocatorIcEEEE, symObjAddr: 0xC88, symBinAddr: 0x100004418, symSize: 0xFC4 }
  - { offsetInCU: 0x1E918, offset: 0x265CF, size: 0x8, addend: 0x0, symName: __ZNSt3__13mapINS_12basic_stringIcNS_11char_traitsIcEENS_9allocatorIcEEEEiNS_4lessIS6_EENS4_INS_4pairIKS6_iEEEEEC1B7v160006Ev, symObjAddr: 0x1C4C, symBinAddr: 0x1000053DC, symSize: 0x2C }
  - { offsetInCU: 0x1E940, offset: 0x265F7, size: 0x8, addend: 0x0, symName: __ZNSt3__112basic_stringIcNS_11char_traitsIcEENS_9allocatorIcEEE3endB7v160006Ev, symObjAddr: 0x1C78, symBinAddr: 0x100005408, symSize: 0x270 }
  - { offsetInCU: 0x1E96F, offset: 0x26626, size: 0x8, addend: 0x0, symName: __ZNSt3__111__wrap_iterIPKcEC1B7v160006IPcEERKNS0_IT_EEPNS_9enable_ifIXsr14is_convertibleIS6_S2_EE5valueEvE4typeE, symObjAddr: 0x1EE8, symBinAddr: 0x100005678, symSize: 0x3C }
  - { offsetInCU: 0x1E9B8, offset: 0x2666F, size: 0x8, addend: 0x0, symName: __ZNSt3__112basic_stringIcNS_11char_traitsIcEENS_9allocatorIcEEE5beginB7v160006Ev, symObjAddr: 0x1F24, symBinAddr: 0x1000056B4, symSize: 0x244 }
  - { offsetInCU: 0x1E9DD, offset: 0x26694, size: 0x8, addend: 0x0, symName: __ZNSt3__13mapINS_12basic_stringIcNS_11char_traitsIcEENS_9allocatorIcEEEEiNS_4lessIS6_EENS4_INS_4pairIKS6_iEEEEED1B7v160006Ev, symObjAddr: 0x2168, symBinAddr: 0x1000058F8, symSize: 0x2C }
  - { offsetInCU: 0x1EA04, offset: 0x266BB, size: 0x8, addend: 0x0, symName: __Z9adv2FirstRKNSt3__112basic_stringIcNS_11char_traitsIcEENS_9allocatorIcEEEE, symObjAddr: 0x2194, symBinAddr: 0x100005924, symSize: 0xE18 }
  - { offsetInCU: 0x1EB15, offset: 0x267CC, size: 0x8, addend: 0x0, symName: __ZNKSt3__112basic_stringIcNS_11char_traitsIcEENS_9allocatorIcEEE6substrB7v160006Emm, symObjAddr: 0x2FAC, symBinAddr: 0x10000673C, symSize: 0x210 }
  - { offsetInCU: 0x1EB5A, offset: 0x26811, size: 0x8, addend: 0x0, symName: __ZNKSt3__112basic_stringIcNS_11char_traitsIcEENS_9allocatorIcEEE4findB7v160006EPKcm, symObjAddr: 0x31BC, symBinAddr: 0x10000694C, symSize: 0x74 }
  - { offsetInCU: 0x1EBEE, offset: 0x268A5, size: 0x8, addend: 0x0, symName: __ZNSt3__119basic_istringstreamIcNS_11char_traitsIcEENS_9allocatorIcEEEC1B7v160006ERKNS_12basic_stringIcS2_S4_EEj, symObjAddr: 0x3230, symBinAddr: 0x1000069C0, symSize: 0x1D0 }
  - { offsetInCU: 0x1EC39, offset: 0x268F0, size: 0x8, addend: 0x0, symName: __ZNSt3__119basic_istringstreamIcNS_11char_traitsIcEENS_9allocatorIcEEED1Ev, symObjAddr: 0x3A88, symBinAddr: 0x100007218, symSize: 0x40 }
  - { offsetInCU: 0x1EC64, offset: 0x2691B, size: 0x8, addend: 0x0, symName: __Z8adv2LastRKNSt3__112basic_stringIcNS_11char_traitsIcEENS_9allocatorIcEEEE, symObjAddr: 0x3AC8, symBinAddr: 0x100007258, symSize: 0xF18 }
  - { offsetInCU: 0x1ED54, offset: 0x26A0B, size: 0x8, addend: 0x0, symName: __Z9adv3FirstRKNSt3__112basic_stringIcNS_11char_traitsIcEENS_9allocatorIcEEEE, symObjAddr: 0x49E0, symBinAddr: 0x100008170, symSize: 0xDA8 }
  - { offsetInCU: 0x1EE68, offset: 0x26B1F, size: 0x8, addend: 0x0, symName: __ZNSt3__16vectorIiNS_9allocatorIiEEEC1Em, symObjAddr: 0x5788, symBinAddr: 0x100008F18, symSize: 0x34 }
  - { offsetInCU: 0x1EEA2, offset: 0x26B59, size: 0x8, addend: 0x0, symName: __ZNKSt3__112basic_stringIcNS_11char_traitsIcEENS_9allocatorIcEEE4sizeB7v160006Ev, symObjAddr: 0x57BC, symBinAddr: 0x100008F4C, symSize: 0x54 }
  - { offsetInCU: 0x1EEC6, offset: 0x26B7D, size: 0x8, addend: 0x0, symName: __ZNSt3__119istreambuf_iteratorIcNS_11char_traitsIcEEEC1B7v160006ERNS_13basic_istreamIcS2_EE, symObjAddr: 0x5B48, symBinAddr: 0x1000092D8, symSize: 0x34 }
  - { offsetInCU: 0x1EEFC, offset: 0x26BB3, size: 0x8, addend: 0x0, symName: __ZNSt3__119istreambuf_iteratorIcNS_11char_traitsIcEEEC1B7v160006Ev, symObjAddr: 0x5B7C, symBinAddr: 0x10000930C, symSize: 0x2C }
  - { offsetInCU: 0x1EF24, offset: 0x26BDB, size: 0x8, addend: 0x0, symName: __ZNSt3__14fposI11__mbstate_tEC1B7v160006Ex, symObjAddr: 0x5BA8, symBinAddr: 0x100009338, symSize: 0x34 }
  - { offsetInCU: 0x1EF5A, offset: 0x26C11, size: 0x8, addend: 0x0, symName: __ZNSt3__16vectorIcNS_9allocatorIcEEEC1Em, symObjAddr: 0x5BDC, symBinAddr: 0x10000936C, symSize: 0x34 }
  - { offsetInCU: 0x1EF94, offset: 0x26C4B, size: 0x8, addend: 0x0, symName: __ZNSt3__16vectorINS0_IcNS_9allocatorIcEEEENS1_IS3_EEEC1EmRKS3_, symObjAddr: 0x5C10, symBinAddr: 0x1000093A0, symSize: 0x3C }
  - { offsetInCU: 0x1EFDD, offset: 0x26C94, size: 0x8, addend: 0x0, symName: __ZNSt3__16vectorIcNS_9allocatorIcEEED1B7v160006Ev, symObjAddr: 0x5C4C, symBinAddr: 0x1000093DC, symSize: 0x2C }
  - { offsetInCU: 0x1F005, offset: 0x26CBC, size: 0x8, addend: 0x0, symName: __ZNSt3__16vectorINS0_IcNS_9allocatorIcEEEENS1_IS3_EEEixB7v160006Em, symObjAddr: 0x5C78, symBinAddr: 0x100009408, symSize: 0x74 }
  - { offsetInCU: 0x1F03A, offset: 0x26CF1, size: 0x8, addend: 0x0, symName: __ZNSt3__16vectorIcNS_9allocatorIcEEEixB7v160006Em, symObjAddr: 0x5CEC, symBinAddr: 0x10000947C, symSize: 0x6C }
  - { offsetInCU: 0x1F06F, offset: 0x26D26, size: 0x8, addend: 0x0, symName: __ZNSt3__16vectorIiNS_9allocatorIiEEEixB7v160006Em, symObjAddr: 0x5D58, symBinAddr: 0x1000094E8, symSize: 0x6C }
  - { offsetInCU: 0x1F0A4, offset: 0x26D5B, size: 0x8, addend: 0x0, symName: __ZNSt3__16vectorINS0_IcNS_9allocatorIcEEEENS1_IS3_EEED1B7v160006Ev, symObjAddr: 0x5DC4, symBinAddr: 0x100009554, symSize: 0x2C }
  - { offsetInCU: 0x1F0CC, offset: 0x26D83, size: 0x8, addend: 0x0, symName: __ZNSt3__16vectorIiNS_9allocatorIiEEED1B7v160006Ev, symObjAddr: 0x5DF0, symBinAddr: 0x100009580, symSize: 0x2C }
  - { offsetInCU: 0x1F0F3, offset: 0x26DAA, size: 0x8, addend: 0x0, symName: __Z8adv3LastRKNSt3__112basic_stringIcNS_11char_traitsIcEENS_9allocatorIcEEEE, symObjAddr: 0x5E1C, symBinAddr: 0x1000095AC, symSize: 0xE6C }
  - { offsetInCU: 0x1F20B, offset: 0x26EC2, size: 0x8, addend: 0x0, symName: __Z9adv4FirstRKNSt3__112basic_stringIcNS_11char_traitsIcEENS_9allocatorIcEEEE, symObjAddr: 0x6EBC, symBinAddr: 0x10000A64C, symSize: 0x10A8 }
  - { offsetInCU: 0x1F351, offset: 0x27008, size: 0x8, addend: 0x0, symName: __ZNSt3__16vectorIiNS_9allocatorIiEEEC1B7v160006Ev, symObjAddr: 0x7F64, symBinAddr: 0x10000B6F4, symSize: 0x2C }
  - { offsetInCU: 0x1F379, offset: 0x27030, size: 0x8, addend: 0x0, symName: __ZNSt3__16vectorINS0_IiNS_9allocatorIiEEEENS1_IS3_EEEC1EmRKS3_, symObjAddr: 0x7F90, symBinAddr: 0x10000B720, symSize: 0x3C }
  - { offsetInCU: 0x1F3C2, offset: 0x27079, size: 0x8, addend: 0x0, symName: __ZNSt3__16vectorINS0_IiNS_9allocatorIiEEEENS1_IS3_EEEixB7v160006Em, symObjAddr: 0x7FCC, symBinAddr: 0x10000B75C, symSize: 0x74 }
  - { offsetInCU: 0x1F3F7, offset: 0x270AE, size: 0x8, addend: 0x0, symName: __ZNSt3__16vectorIiNS_9allocatorIiEEE9push_backB7v160006ERKi, symObjAddr: 0x8040, symBinAddr: 0x10000B7D0, symSize: 0xE0 }
  - { offsetInCU: 0x1F42C, offset: 0x270E3, size: 0x8, addend: 0x0, symName: __ZNKSt3__16vectorIiNS_9allocatorIiEEE4sizeB7v160006Ev, symObjAddr: 0x8120, symBinAddr: 0x10000B8B0, symSize: 0xB0 }
  - { offsetInCU: 0x1F450, offset: 0x27107, size: 0x8, addend: 0x0, symName: __ZNSt3__16vectorINS0_IiNS_9allocatorIiEEEENS1_IS3_EEED1B7v160006Ev, symObjAddr: 0x8214, symBinAddr: 0x10000B9A4, symSize: 0x2C }
  - { offsetInCU: 0x1F477, offset: 0x2712E, size: 0x8, addend: 0x0, symName: __Z8adv4LastRKNSt3__112basic_stringIcNS_11char_traitsIcEENS_9allocatorIcEEEE, symObjAddr: 0x8240, symBinAddr: 0x10000B9D0, symSize: 0x120C }
  - { offsetInCU: 0x1F5E2, offset: 0x27299, size: 0x8, addend: 0x0, symName: __ZNKSt3__16vectorINS0_IiNS_9allocatorIiEEEENS1_IS3_EEE4sizeB7v160006Ev, symObjAddr: 0x944C, symBinAddr: 0x10000CBDC, symSize: 0xB0 }
  - { offsetInCU: 0x1F605, offset: 0x272BC, size: 0x8, addend: 0x0, symName: __Z9adv5FirstRKNSt3__112basic_stringIcNS_11char_traitsIcEENS_9allocatorIcEEEE, symObjAddr: 0x94FC, symBinAddr: 0x10000CC8C, symSize: 0x1470 }
  - { offsetInCU: 0x1F836, offset: 0x274ED, size: 0x8, addend: 0x0, symName: __ZNSt3__16vectorINS_4pairIxbEENS_9allocatorIS2_EEEC1B7v160006Ev, symObjAddr: 0xA96C, symBinAddr: 0x10000E0FC, symSize: 0x2C }
  - { offsetInCU: 0x1F863, offset: 0x2751A, size: 0x8, addend: 0x0, symName: __ZNSt3__16vectorINS_4pairIxbEENS_9allocatorIS2_EEE12emplace_backIJRxbEEERS2_DpOT_, symObjAddr: 0xA998, symBinAddr: 0x10000E128, symSize: 0xF4 }
  - { offsetInCU: 0x1F8B8, offset: 0x2756F, size: 0x8, addend: 0x0, symName: __ZNKSt3__112basic_stringIcNS_11char_traitsIcEENS_9allocatorIcEEE5emptyB7v160006Ev, symObjAddr: 0xAA8C, symBinAddr: 0x10000E21C, symSize: 0x30 }
  - { offsetInCU: 0x1F8DC, offset: 0x27593, size: 0x8, addend: 0x0, symName: __ZNSt3__16vectorINS_4pairIxbEENS_9allocatorIS2_EEE5beginB7v160006Ev, symObjAddr: 0xAABC, symBinAddr: 0x10000E24C, symSize: 0x268 }
  - { offsetInCU: 0x1F903, offset: 0x275BA, size: 0x8, addend: 0x0, symName: __ZNSt3__16vectorINS_4pairIxbEENS_9allocatorIS2_EEE3endB7v160006Ev, symObjAddr: 0xAD24, symBinAddr: 0x10000E4B4, symSize: 0x26C }
  - { offsetInCU: 0x1F92A, offset: 0x275E1, size: 0x8, addend: 0x0, symName: __ZNKSt3__111__wrap_iterIPNS_4pairIxbEEEdeB7v160006Ev, symObjAddr: 0xAFC4, symBinAddr: 0x10000E754, symSize: 0x60 }
  - { offsetInCU: 0x1F94E, offset: 0x27605, size: 0x8, addend: 0x0, symName: __ZNSt3__111__wrap_iterIPNS_4pairIxbEEEppB7v160006Ev, symObjAddr: 0xB06C, symBinAddr: 0x10000E7FC, symSize: 0x68 }
  - { offsetInCU: 0x1F972, offset: 0x27629, size: 0x8, addend: 0x0, symName: __ZNKSt3__16vectorINS_4pairIxbEENS_9allocatorIS2_EEE4sizeB7v160006Ev, symObjAddr: 0xB0D4, symBinAddr: 0x10000E864, symSize: 0xB0 }
  - { offsetInCU: 0x1F996, offset: 0x2764D, size: 0x8, addend: 0x0, symName: __ZNKSt3__15arrayIxLm3EE4sizeB7v160006Ev, symObjAddr: 0xB184, symBinAddr: 0x10000E914, symSize: 0x14 }
  - { offsetInCU: 0x1F9BA, offset: 0x27671, size: 0x8, addend: 0x0, symName: __ZNSt3__15arrayIxLm3EEixB7v160006Em, symObjAddr: 0xB198, symBinAddr: 0x10000E928, symSize: 0x20 }
  - { offsetInCU: 0x1F9EC, offset: 0x276A3, size: 0x8, addend: 0x0, symName: __ZNKSt3__111__wrap_iterIPNS_4pairIxbEEEptB7v160006Ev, symObjAddr: 0xB5B0, symBinAddr: 0x10000ED40, symSize: 0x64 }
  - { offsetInCU: 0x1FA10, offset: 0x276C7, size: 0x8, addend: 0x0, symName: __ZNSt3__16vectorINS_4pairIxbEENS_9allocatorIS2_EEED1B7v160006Ev, symObjAddr: 0xB614, symBinAddr: 0x10000EDA4, symSize: 0x2C }
  - { offsetInCU: 0x1FA37, offset: 0x276EE, size: 0x8, addend: 0x0, symName: __Z8adv5LastRKNSt3__112basic_stringIcNS_11char_traitsIcEENS_9allocatorIcEEEE, symObjAddr: 0xB640, symBinAddr: 0x10000EDD0, symSize: 0x1B20 }
  - { offsetInCU: 0x1FCB7, offset: 0x2796E, size: 0x8, addend: 0x0, symName: __ZNSt3__16vectorINS_4pairI8rangeNumbEENS_9allocatorIS3_EEEC1B7v160006Ev, symObjAddr: 0xD160, symBinAddr: 0x1000108F0, symSize: 0x2C }
  - { offsetInCU: 0x1FCE4, offset: 0x2799B, size: 0x8, addend: 0x0, symName: __ZNSt3__16vectorINS_4pairI8rangeNumbEENS_9allocatorIS3_EEE12emplace_backIJS2_bEEERS3_DpOT_, symObjAddr: 0xD18C, symBinAddr: 0x10001091C, symSize: 0xF4 }
  - { offsetInCU: 0x1FD39, offset: 0x279F0, size: 0x8, addend: 0x0, symName: __ZNSt3__15arrayIxLm3EE5beginB7v160006Ev, symObjAddr: 0xD280, symBinAddr: 0x100010A10, symSize: 0x24 }
  - { offsetInCU: 0x1FD5D, offset: 0x27A14, size: 0x8, addend: 0x0, symName: __ZNSt3__15arrayIxLm3EE3endB7v160006Ev, symObjAddr: 0xD2A4, symBinAddr: 0x100010A34, symSize: 0x28 }
  - { offsetInCU: 0x1FD81, offset: 0x27A38, size: 0x8, addend: 0x0, symName: __ZNKSt3__16vectorINS_4pairI8rangeNumbEENS_9allocatorIS3_EEE5emptyB7v160006Ev, symObjAddr: 0xD2CC, symBinAddr: 0x100010A5C, symSize: 0xB0 }
  - { offsetInCU: 0x1FDA5, offset: 0x27A5C, size: 0x8, addend: 0x0, symName: __ZNSt3__16vectorINS_4pairI8rangeNumbEENS_9allocatorIS3_EEE4backB7v160006Ev, symObjAddr: 0xD37C, symBinAddr: 0x100010B0C, symSize: 0x68 }
  - { offsetInCU: 0x1FDC9, offset: 0x27A80, size: 0x8, addend: 0x0, symName: __ZNSt3__16vectorINS_4pairI8rangeNumbEENS_9allocatorIS3_EEE8pop_backEv, symObjAddr: 0xD470, symBinAddr: 0x100010C00, symSize: 0x6C }
  - { offsetInCU: 0x1FDF4, offset: 0x27AAB, size: 0x8, addend: 0x0, symName: __ZNSt3__16vectorINS_4pairI8rangeNumbEENS_9allocatorIS3_EEE12emplace_backIJS2_RKbEEERS3_DpOT_, symObjAddr: 0xD534, symBinAddr: 0x100010CC4, symSize: 0xF4 }
  - { offsetInCU: 0x1FE49, offset: 0x27B00, size: 0x8, addend: 0x0, symName: __ZNSt3__16vectorINS_4pairI8rangeNumbEENS_9allocatorIS3_EEE4swapERS6_, symObjAddr: 0xD628, symBinAddr: 0x100010DB8, symSize: 0xA4 }
  - { offsetInCU: 0x1FE7E, offset: 0x27B35, size: 0x8, addend: 0x0, symName: __ZNSt3__16vectorINS_4pairI8rangeNumbEENS_9allocatorIS3_EEE5clearB7v160006Ev, symObjAddr: 0xD6CC, symBinAddr: 0x100010E5C, symSize: 0x4C }
  - { offsetInCU: 0x1FEB1, offset: 0x27B68, size: 0x8, addend: 0x0, symName: __ZNSt3__16vectorINS_4pairI8rangeNumbEENS_9allocatorIS3_EEE5beginB7v160006Ev, symObjAddr: 0xDB10, symBinAddr: 0x1000112A0, symSize: 0x268 }
  - { offsetInCU: 0x1FED8, offset: 0x27B8F, size: 0x8, addend: 0x0, symName: __ZNSt3__16vectorINS_4pairI8rangeNumbEENS_9allocatorIS3_EEE3endB7v160006Ev, symObjAddr: 0xDD78, symBinAddr: 0x100011508, symSize: 0x26C }
  - { offsetInCU: 0x1FEFF, offset: 0x27BB6, size: 0x8, addend: 0x0, symName: __ZNKSt3__111__wrap_iterIPNS_4pairI8rangeNumbEEEdeB7v160006Ev, symObjAddr: 0xDFE4, symBinAddr: 0x100011774, symSize: 0x60 }
  - { offsetInCU: 0x1FF23, offset: 0x27BDA, size: 0x8, addend: 0x0, symName: __ZNSt3__16vectorINS_4pairI8rangeNumbEENS_9allocatorIS3_EEED1B7v160006Ev, symObjAddr: 0xE044, symBinAddr: 0x1000117D4, symSize: 0x2C }
  - { offsetInCU: 0x1FF4A, offset: 0x27C01, size: 0x8, addend: 0x0, symName: __Z9adv6FirstRKNSt3__112basic_stringIcNS_11char_traitsIcEENS_9allocatorIcEEEE, symObjAddr: 0xE070, symBinAddr: 0x100011800, symSize: 0xD30 }
  - { offsetInCU: 0x20037, offset: 0x27CEE, size: 0x8, addend: 0x0, symName: __ZNSt3__119basic_istringstreamIcNS_11char_traitsIcEENS_9allocatorIcEEEC1B7v160006Ev, symObjAddr: 0xEDA0, symBinAddr: 0x100012530, symSize: 0x1C0 }
  - { offsetInCU: 0x2005E, offset: 0x27D15, size: 0x8, addend: 0x0, symName: __Z4sqrtB7v160006IiENSt3__19enable_ifIXsr3std11is_integralIT_EE5valueEdE4typeES2_, symObjAddr: 0xEF60, symBinAddr: 0x1000126F0, symSize: 0x24 }
  - { offsetInCU: 0x20096, offset: 0x27D4D, size: 0x8, addend: 0x0, symName: __Z8adv6LastRKNSt3__112basic_stringIcNS_11char_traitsIcEENS_9allocatorIcEEEE, symObjAddr: 0xEF84, symBinAddr: 0x100012714, symSize: 0xA00 }
  - { offsetInCU: 0x20180, offset: 0x27E37, size: 0x8, addend: 0x0, symName: __Z4sqrtB7v160006IxENSt3__19enable_ifIXsr3std11is_integralIT_EE5valueEdE4typeES2_, symObjAddr: 0xF984, symBinAddr: 0x100013114, symSize: 0x1C }
  - { offsetInCU: 0x201B8, offset: 0x27E6F, size: 0x8, addend: 0x0, symName: __Z9adv7FirstRKNSt3__112basic_stringIcNS_11char_traitsIcEENS_9allocatorIcEEEE, symObjAddr: 0xF9A0, symBinAddr: 0x100013130, symSize: 0x910 }
  - { offsetInCU: 0x2026F, offset: 0x27F26, size: 0x8, addend: 0x0, symName: __ZNSt3__119basic_istringstreamIcNS_11char_traitsIcEENS_9allocatorIcEEE3strB7v160006ERKNS_12basic_stringIcS2_S4_EE, symObjAddr: 0x102B0, symBinAddr: 0x100013A40, symSize: 0x30 }
  - { offsetInCU: 0x202A2, offset: 0x27F59, size: 0x8, addend: 0x0, symName: __ZNSt3__19basic_iosIcNS_11char_traitsIcEEE5clearB7v160006Ej, symObjAddr: 0x10CA0, symBinAddr: 0x100014430, symSize: 0x2C }
  - { offsetInCU: 0x202D4, offset: 0x27F8B, size: 0x8, addend: 0x0, symName: __Z9__isctypeim, symObjAddr: 0x10D14, symBinAddr: 0x10001445C, symSize: 0xFC }
  - { offsetInCU: 0x2030F, offset: 0x27FC6, size: 0x8, addend: 0x0, symName: __ZNSt3__114basic_ifstreamIcNS_11char_traitsIcEEED2Ev, symObjAddr: 0x10E10, symBinAddr: 0x100014558, symSize: 0x198 }
  - { offsetInCU: 0x20347, offset: 0x27FFE, size: 0x8, addend: 0x0, symName: __ZTv0_n24_NSt3__114basic_ifstreamIcNS_11char_traitsIcEEED1Ev, symObjAddr: 0x10FA8, symBinAddr: 0x1000146F0, symSize: 0xB0 }
  - { offsetInCU: 0x2035E, offset: 0x28015, size: 0x8, addend: 0x0, symName: __ZNSt3__111__wrap_iterIPKcEC2B7v160006IPcEERKNS0_IT_EEPNS_9enable_ifIXsr14is_convertibleIS6_S2_EE5valueEvE4typeE, symObjAddr: 0x11058, symBinAddr: 0x1000147A0, symSize: 0x84 }
  - { offsetInCU: 0x203A7, offset: 0x2805E, size: 0x8, addend: 0x0, symName: __ZNKSt3__111__wrap_iterIPcE4baseB7v160006Ev, symObjAddr: 0x110DC, symBinAddr: 0x100014824, symSize: 0x60 }
  - { offsetInCU: 0x203CB, offset: 0x28082, size: 0x8, addend: 0x0, symName: __ZNSt3__119basic_istringstreamIcNS_11char_traitsIcEENS_9allocatorIcEEED2Ev, symObjAddr: 0x1113C, symBinAddr: 0x100014884, symSize: 0x198 }
  - { offsetInCU: 0x20403, offset: 0x280BA, size: 0x8, addend: 0x0, symName: __ZTv0_n24_NSt3__119basic_istringstreamIcNS_11char_traitsIcEENS_9allocatorIcEEED1Ev, symObjAddr: 0x112D4, symBinAddr: 0x100014A1C, symSize: 0xB0 }
  - { offsetInCU: 0x2041F, offset: 0x280D6, size: 0x8, addend: 0x0, symName: __ZNSt3__115basic_stringbufIcNS_11char_traitsIcEENS_9allocatorIcEEED1Ev, symObjAddr: 0x11384, symBinAddr: 0x100014ACC, symSize: 0x2C }
  - { offsetInCU: 0x2044B, offset: 0x28102, size: 0x8, addend: 0x0, symName: __ZNSt3__115basic_stringbufIcNS_11char_traitsIcEENS_9allocatorIcEEED2Ev, symObjAddr: 0x113B0, symBinAddr: 0x100014AF8, symSize: 0x88 }
  - { offsetInCU: 0x20477, offset: 0x2812E, size: 0x8, addend: 0x0, symName: __ZNSt3__119istreambuf_iteratorIcNS_11char_traitsIcEEEC2B7v160006Ev, symObjAddr: 0x11438, symBinAddr: 0x100014B80, symSize: 0x60 }
  - { offsetInCU: 0x2049F, offset: 0x28156, size: 0x8, addend: 0x0, symName: __ZNKSt3__111__wrap_iterIPNS_4pairIxbEEE4baseB7v160006Ev, symObjAddr: 0x114E0, symBinAddr: 0x100014C28, symSize: 0x60 }
  - { offsetInCU: 0x204C3, offset: 0x2817A, size: 0x8, addend: 0x0, symName: __ZNSt3__110__get_pairILm0EE3getB7v160006IxbEERT_RNS_4pairIS3_T0_EE, symObjAddr: 0x11540, symBinAddr: 0x100014C88, symSize: 0x14 }
  - { offsetInCU: 0x204F8, offset: 0x281AF, size: 0x8, addend: 0x0, symName: __ZNSt3__110__get_pairILm1EE3getB7v160006IxbEERT0_RNS_4pairIT_S3_EE, symObjAddr: 0x11554, symBinAddr: 0x100014C9C, symSize: 0x18 }
  - { offsetInCU: 0x20537, offset: 0x281EE, size: 0x8, addend: 0x0, symName: '__ZZ9adv5FirstRKNSt3__112basic_stringIcNS_11char_traitsIcEENS_9allocatorIcEEEEENK3$_0clINS_4pairIxbEESB_EEDaRKT_RKT0_', symObjAddr: 0x11E0C, symBinAddr: 0x100015554, symSize: 0xBC }
  - { offsetInCU: 0x20599, offset: 0x28250, size: 0x8, addend: 0x0, symName: __ZNKSt3__110__identityclIRNS_4pairIxbEEEEOT_S6_, symObjAddr: 0x11EC8, symBinAddr: 0x100015610, symSize: 0x18 }
  - { offsetInCU: 0x205D4, offset: 0x2828B, size: 0x8, addend: 0x0, symName: __ZNSt3__15arrayIxLm3EE4dataB7v160006Ev, symObjAddr: 0x11EF4, symBinAddr: 0x10001563C, symSize: 0x14 }
  - { offsetInCU: 0x205F8, offset: 0x282AF, size: 0x8, addend: 0x0, symName: __ZNSt3__110__get_pairILm0EE3getB7v160006I8rangeNumbEERKT_RKNS_4pairIS4_T0_EE, symObjAddr: 0x11F08, symBinAddr: 0x100015650, symSize: 0x14 }
  - { offsetInCU: 0x2062D, offset: 0x282E4, size: 0x8, addend: 0x0, symName: __ZNSt3__110__get_pairILm1EE3getB7v160006I8rangeNumbEERKT0_RKNS_4pairIT_S4_EE, symObjAddr: 0x11F1C, symBinAddr: 0x100015664, symSize: 0x18 }
  - { offsetInCU: 0x20676, offset: 0x2832D, size: 0x8, addend: 0x0, symName: __ZNKSt3__16__lessIxxEclB7v160006ERKxS3_, symObjAddr: 0x1211C, symBinAddr: 0x100015864, symSize: 0xBC }
  - { offsetInCU: 0x206B6, offset: 0x2836D, size: 0x8, addend: 0x0, symName: __ZNSt3__111__wrap_iterIPNS_4pairI8rangeNumbEEEppB7v160006Ev, symObjAddr: 0x12C78, symBinAddr: 0x1000163C0, symSize: 0x68 }
  - { offsetInCU: 0x206DA, offset: 0x28391, size: 0x8, addend: 0x0, symName: __ZNKSt3__111__wrap_iterIPNS_4pairI8rangeNumbEEE4baseB7v160006Ev, symObjAddr: 0x12D44, symBinAddr: 0x10001648C, symSize: 0x60 }
  - { offsetInCU: 0x20708, offset: 0x283BF, size: 0x8, addend: 0x0, symName: '__ZZ8adv5LastRKNSt3__112basic_stringIcNS_11char_traitsIcEENS_9allocatorIcEEEEENK3$_1clINS_4pairI8rangeNumbEESC_EEDaRKT_RKT0_', symObjAddr: 0x12DA4, symBinAddr: 0x1000164EC, symSize: 0xBC }
  - { offsetInCU: 0x20760, offset: 0x28417, size: 0x8, addend: 0x0, symName: __ZNKSt3__110__identityclIRNS_4pairI8rangeNumbEEEEOT_S7_, symObjAddr: 0x12E60, symBinAddr: 0x1000165A8, symSize: 0x18 }
  - { offsetInCU: 0x2079B, offset: 0x28452, size: 0x8, addend: 0x0, symName: __ZNSt3__112basic_stringIcNS_11char_traitsIcEENS_9allocatorIcEEEC2B7v160006Ev, symObjAddr: 0x12E78, symBinAddr: 0x1000165C0, symSize: 0x218 }
  - { offsetInCU: 0x207C9, offset: 0x28480, size: 0x8, addend: 0x0, symName: __ZNSt3__112basic_stringIcNS_11char_traitsIcEENS_9allocatorIcEEE14__default_initB7v160006Ev, symObjAddr: 0x130E8, symBinAddr: 0x1000167D8, symSize: 0x22C }
  - { offsetInCU: 0x207EE, offset: 0x284A5, size: 0x8, addend: 0x0, symName: __ZNSt3__19basic_iosIcNS_11char_traitsIcEEEC2B7v160006Ev, symObjAddr: 0x13408, symBinAddr: 0x100016A04, symSize: 0x84 }
  - { offsetInCU: 0x20816, offset: 0x284CD, size: 0x8, addend: 0x0, symName: __ZNSt3__113basic_istreamIcNS_11char_traitsIcEEEC2B7v160006EPNS_15basic_streambufIcS2_EE, symObjAddr: 0x1348C, symBinAddr: 0x100016A88, symSize: 0x20C }
  - { offsetInCU: 0x20858, offset: 0x2850F, size: 0x8, addend: 0x0, symName: __ZNSt3__113basic_filebufIcNS_11char_traitsIcEEE4openERKNS_12basic_stringIcS2_NS_9allocatorIcEEEEj, symObjAddr: 0x13698, symBinAddr: 0x100016C94, symSize: 0x44 }
  - { offsetInCU: 0x2089A, offset: 0x28551, size: 0x8, addend: 0x0, symName: __ZNSt3__18ios_baseC2B7v160006Ev, symObjAddr: 0x13708, symBinAddr: 0x100016CD8, symSize: 0x74 }
  - { offsetInCU: 0x208C2, offset: 0x28579, size: 0x8, addend: 0x0, symName: __ZNSt3__19basic_iosIcNS_11char_traitsIcEEE4initB7v160006EPNS_15basic_streambufIcS2_EE, symObjAddr: 0x1377C, symBinAddr: 0x100016D4C, symSize: 0xEC }
  - { offsetInCU: 0x208F7, offset: 0x285AE, size: 0x8, addend: 0x0, symName: __ZNKSt3__112basic_stringIcNS_11char_traitsIcEENS_9allocatorIcEEE5c_strB7v160006Ev, symObjAddr: 0x13870, symBinAddr: 0x100016E38, symSize: 0x24 }
  - { offsetInCU: 0x2091B, offset: 0x285D2, size: 0x8, addend: 0x0, symName: __ZNKSt3__112basic_stringIcNS_11char_traitsIcEENS_9allocatorIcEEE4dataB7v160006Ev, symObjAddr: 0x13894, symBinAddr: 0x100016E5C, symSize: 0x28 }
  - { offsetInCU: 0x2093F, offset: 0x285F6, size: 0x8, addend: 0x0, symName: __ZNKSt3__112basic_stringIcNS_11char_traitsIcEENS_9allocatorIcEEE13__get_pointerB7v160006Ev, symObjAddr: 0x138D0, symBinAddr: 0x100016E98, symSize: 0x54 }
  - { offsetInCU: 0x20963, offset: 0x2861A, size: 0x8, addend: 0x0, symName: __ZNKSt3__112basic_stringIcNS_11char_traitsIcEENS_9allocatorIcEEE18__get_long_pointerB7v160006Ev, symObjAddr: 0x139C8, symBinAddr: 0x100016EEC, symSize: 0x6C }
  - { offsetInCU: 0x20987, offset: 0x2863E, size: 0x8, addend: 0x0, symName: __ZNKSt3__112basic_stringIcNS_11char_traitsIcEENS_9allocatorIcEEE19__get_short_pointerB7v160006Ev, symObjAddr: 0x13A34, symBinAddr: 0x100016F58, symSize: 0x28 }
  - { offsetInCU: 0x209AB, offset: 0x28662, size: 0x8, addend: 0x0, symName: __ZNSt3__114pointer_traitsIPKcE10pointer_toB7v160006ERS1_, symObjAddr: 0x13A94, symBinAddr: 0x100016F80, symSize: 0x14 }
  - { offsetInCU: 0x209D7, offset: 0x2868E, size: 0x8, addend: 0x0, symName: __ZNKSt3__19basic_iosIcNS_11char_traitsIcEEE4failB7v160006Ev, symObjAddr: 0x13ED0, symBinAddr: 0x100016F94, symSize: 0x28 }
  - { offsetInCU: 0x209FB, offset: 0x286B2, size: 0x8, addend: 0x0, symName: __ZNKSt3__18ios_base4failB7v160006Ev, symObjAddr: 0x13EF8, symBinAddr: 0x100016FBC, symSize: 0x9C }
  - { offsetInCU: 0x20A21, offset: 0x286D8, size: 0x8, addend: 0x0, symName: __ZNSt3__13mapINS_12basic_stringIcNS_11char_traitsIcEENS_9allocatorIcEEEEiNS_4lessIS6_EENS4_INS_4pairIKS6_iEEEEEC2B7v160006Ev, symObjAddr: 0x14090, symBinAddr: 0x100017058, symSize: 0x1E8 }
  - { offsetInCU: 0x20A4A, offset: 0x28701, size: 0x8, addend: 0x0, symName: __ZNSt3__119__map_value_compareINS_12basic_stringIcNS_11char_traitsIcEENS_9allocatorIcEEEENS_12__value_typeIS6_iEENS_4lessIS6_EELb1EEC1B7v160006ESA_, symObjAddr: 0x14278, symBinAddr: 0x100017240, symSize: 0x2C }
  - { offsetInCU: 0x20A81, offset: 0x28738, size: 0x8, addend: 0x0, symName: __ZNSt3__16__treeINS_12__value_typeINS_12basic_stringIcNS_11char_traitsIcEENS_9allocatorIcEEEEiEENS_19__map_value_compareIS7_S8_NS_4lessIS7_EELb1EEENS5_IS8_EEEC1ERKSC_, symObjAddr: 0x142A4, symBinAddr: 0x10001726C, symSize: 0x34 }
  - { offsetInCU: 0x20ABB, offset: 0x28772, size: 0x8, addend: 0x0, symName: __ZNSt3__119__map_value_compareINS_12basic_stringIcNS_11char_traitsIcEENS_9allocatorIcEEEENS_12__value_typeIS6_iEENS_4lessIS6_EELb1EEC2B7v160006ESA_, symObjAddr: 0x142D8, symBinAddr: 0x1000172A0, symSize: 0x14 }
  - { offsetInCU: 0x20AF2, offset: 0x287A9, size: 0x8, addend: 0x0, symName: __ZNSt3__16__treeINS_12__value_typeINS_12basic_stringIcNS_11char_traitsIcEENS_9allocatorIcEEEEiEENS_19__map_value_compareIS7_S8_NS_4lessIS7_EELb1EEENS5_IS8_EEEC2ERKSC_, symObjAddr: 0x142EC, symBinAddr: 0x1000172B4, symSize: 0x2CC }
  - { offsetInCU: 0x20B2E, offset: 0x287E5, size: 0x8, addend: 0x0, symName: __ZNSt3__117__compressed_pairINS_15__tree_end_nodeIPNS_16__tree_node_baseIPvEEEENS_9allocatorINS_11__tree_nodeINS_12__value_typeINS_12basic_stringIcNS_11char_traitsIcEENS7_IcEEEEiEES3_EEEEEC1B7v160006ILb1EvEEv, symObjAddr: 0x145B8, symBinAddr: 0x100017580, symSize: 0x2C }
  - { offsetInCU: 0x20B67, offset: 0x2881E, size: 0x8, addend: 0x0, symName: __ZNSt3__117__compressed_pairImNS_19__map_value_compareINS_12basic_stringIcNS_11char_traitsIcEENS_9allocatorIcEEEENS_12__value_typeIS7_iEENS_4lessIS7_EELb1EEEEC1B7v160006IiRKSC_EEOT_OT0_, symObjAddr: 0x145E4, symBinAddr: 0x1000175AC, symSize: 0x3C }
  - { offsetInCU: 0x20BBD, offset: 0x28874, size: 0x8, addend: 0x0, symName: __ZNSt3__16__treeINS_12__value_typeINS_12basic_stringIcNS_11char_traitsIcEENS_9allocatorIcEEEEiEENS_19__map_value_compareIS7_S8_NS_4lessIS7_EELb1EEENS5_IS8_EEE10__end_nodeB7v160006Ev, symObjAddr: 0x14620, symBinAddr: 0x1000175E8, symSize: 0x2C }
  - { offsetInCU: 0x20BE1, offset: 0x28898, size: 0x8, addend: 0x0, symName: __ZNSt3__16__treeINS_12__value_typeINS_12basic_stringIcNS_11char_traitsIcEENS_9allocatorIcEEEEiEENS_19__map_value_compareIS7_S8_NS_4lessIS7_EELb1EEENS5_IS8_EEE12__begin_nodeB7v160006Ev, symObjAddr: 0x1464C, symBinAddr: 0x100017614, symSize: 0x14 }
  - { offsetInCU: 0x20C05, offset: 0x288BC, size: 0x8, addend: 0x0, symName: __ZNSt3__117__compressed_pairINS_15__tree_end_nodeIPNS_16__tree_node_baseIPvEEEENS_9allocatorINS_11__tree_nodeINS_12__value_typeINS_12basic_stringIcNS_11char_traitsIcEENS7_IcEEEEiEES3_EEEEEC2B7v160006ILb1EvEEv, symObjAddr: 0x14660, symBinAddr: 0x100017628, symSize: 0x34 }
  - { offsetInCU: 0x20C39, offset: 0x288F0, size: 0x8, addend: 0x0, symName: __ZNSt3__122__compressed_pair_elemINS_15__tree_end_nodeIPNS_16__tree_node_baseIPvEEEELi0ELb0EEC2B7v160006ENS_16__value_init_tagE, symObjAddr: 0x14694, symBinAddr: 0x10001765C, symSize: 0x2C }
  - { offsetInCU: 0x20C6B, offset: 0x28922, size: 0x8, addend: 0x0, symName: __ZNSt3__122__compressed_pair_elemINS_9allocatorINS_11__tree_nodeINS_12__value_typeINS_12basic_stringIcNS_11char_traitsIcEENS1_IcEEEEiEEPvEEEELi1ELb1EEC2B7v160006ENS_16__value_init_tagE, symObjAddr: 0x146C0, symBinAddr: 0x100017688, symSize: 0x2C }
  - { offsetInCU: 0x20C9D, offset: 0x28954, size: 0x8, addend: 0x0, symName: __ZNSt3__115__tree_end_nodeIPNS_16__tree_node_baseIPvEEEC1B7v160006Ev, symObjAddr: 0x146EC, symBinAddr: 0x1000176B4, symSize: 0x2C }
  - { offsetInCU: 0x20CC5, offset: 0x2897C, size: 0x8, addend: 0x0, symName: __ZNSt3__115__tree_end_nodeIPNS_16__tree_node_baseIPvEEEC2B7v160006Ev, symObjAddr: 0x14718, symBinAddr: 0x1000176E0, symSize: 0x60 }
  - { offsetInCU: 0x20CED, offset: 0x289A4, size: 0x8, addend: 0x0, symName: __ZNSt3__19allocatorINS_11__tree_nodeINS_12__value_typeINS_12basic_stringIcNS_11char_traitsIcEENS0_IcEEEEiEEPvEEEC2B7v160006Ev, symObjAddr: 0x14778, symBinAddr: 0x100017740, symSize: 0x2C }
  - { offsetInCU: 0x20D15, offset: 0x289CC, size: 0x8, addend: 0x0, symName: __ZNSt3__116__non_trivial_ifILb1ENS_9allocatorINS_11__tree_nodeINS_12__value_typeINS_12basic_stringIcNS_11char_traitsIcEENS1_IcEEEEiEEPvEEEEEC2B7v160006Ev, symObjAddr: 0x147A4, symBinAddr: 0x10001776C, symSize: 0x14 }
  - { offsetInCU: 0x20D3D, offset: 0x289F4, size: 0x8, addend: 0x0, symName: __ZNSt3__117__compressed_pairImNS_19__map_value_compareINS_12basic_stringIcNS_11char_traitsIcEENS_9allocatorIcEEEENS_12__value_typeIS7_iEENS_4lessIS7_EELb1EEEEC2B7v160006IiRKSC_EEOT_OT0_, symObjAddr: 0x147B8, symBinAddr: 0x100017780, symSize: 0x44 }
  - { offsetInCU: 0x20D93, offset: 0x28A4A, size: 0x8, addend: 0x0, symName: __ZNSt3__122__compressed_pair_elemImLi0ELb0EEC2B7v160006IivEEOT_, symObjAddr: 0x147FC, symBinAddr: 0x1000177C4, symSize: 0xD8 }
  - { offsetInCU: 0x20DD4, offset: 0x28A8B, size: 0x8, addend: 0x0, symName: __ZNSt3__122__compressed_pair_elemINS_19__map_value_compareINS_12basic_stringIcNS_11char_traitsIcEENS_9allocatorIcEEEENS_12__value_typeIS7_iEENS_4lessIS7_EELb1EEELi1ELb1EEC2B7v160006IRKSC_vEEOT_, symObjAddr: 0x148D4, symBinAddr: 0x10001789C, symSize: 0x18 }
  - { offsetInCU: 0x20E15, offset: 0x28ACC, size: 0x8, addend: 0x0, symName: __ZNSt3__114pointer_traitsIPNS_15__tree_end_nodeIPNS_16__tree_node_baseIPvEEEEE10pointer_toB7v160006ERS6_, symObjAddr: 0x148EC, symBinAddr: 0x1000178B4, symSize: 0x14 }
  - { offsetInCU: 0x20E37, offset: 0x28AEE, size: 0x8, addend: 0x0, symName: __ZNSt3__117__compressed_pairINS_15__tree_end_nodeIPNS_16__tree_node_baseIPvEEEENS_9allocatorINS_11__tree_nodeINS_12__value_typeINS_12basic_stringIcNS_11char_traitsIcEENS7_IcEEEEiEES3_EEEEE5firstB7v160006Ev, symObjAddr: 0x14900, symBinAddr: 0x1000178C8, symSize: 0x24 }
  - { offsetInCU: 0x20E5B, offset: 0x28B12, size: 0x8, addend: 0x0, symName: __ZNSt3__122__compressed_pair_elemINS_15__tree_end_nodeIPNS_16__tree_node_baseIPvEEEELi0ELb0EE5__getB7v160006Ev, symObjAddr: 0x14924, symBinAddr: 0x1000178EC, symSize: 0x14 }
  - { offsetInCU: 0x20E7F, offset: 0x28B36, size: 0x8, addend: 0x0, symName: __ZNSt3__13mapINS_12basic_stringIcNS_11char_traitsIcEENS_9allocatorIcEEEEiNS_4lessIS6_EENS4_INS_4pairIKS6_iEEEEED2B7v160006Ev, symObjAddr: 0x14938, symBinAddr: 0x100017900, symSize: 0x2C }
  - { offsetInCU: 0x20EA7, offset: 0x28B5E, size: 0x8, addend: 0x0, symName: __ZNSt3__16__treeINS_12__value_typeINS_12basic_stringIcNS_11char_traitsIcEENS_9allocatorIcEEEEiEENS_19__map_value_compareIS7_S8_NS_4lessIS7_EELb1EEENS5_IS8_EEED1Ev, symObjAddr: 0x14964, symBinAddr: 0x10001792C, symSize: 0x2C }
  - { offsetInCU: 0x20ED2, offset: 0x28B89, size: 0x8, addend: 0x0, symName: __ZNSt3__16__treeINS_12__value_typeINS_12basic_stringIcNS_11char_traitsIcEENS_9allocatorIcEEEEiEENS_19__map_value_compareIS7_S8_NS_4lessIS7_EELb1EEENS5_IS8_EEED2Ev, symObjAddr: 0x14990, symBinAddr: 0x100017958, symSize: 0x38 }
  - { offsetInCU: 0x20EFD, offset: 0x28BB4, size: 0x8, addend: 0x0, symName: __ZNSt3__16__treeINS_12__value_typeINS_12basic_stringIcNS_11char_traitsIcEENS_9allocatorIcEEEEiEENS_19__map_value_compareIS7_S8_NS_4lessIS7_EELb1EEENS5_IS8_EEE7destroyEPNS_11__tree_nodeIS8_PvEE, symObjAddr: 0x149C8, symBinAddr: 0x100017990, symSize: 0x134 }
  - { offsetInCU: 0x20F47, offset: 0x28BFE, size: 0x8, addend: 0x0, symName: __ZNKSt3__16__treeINS_12__value_typeINS_12basic_stringIcNS_11char_traitsIcEENS_9allocatorIcEEEEiEENS_19__map_value_compareIS7_S8_NS_4lessIS7_EELb1EEENS5_IS8_EEE6__rootB7v160006Ev, symObjAddr: 0x14AFC, symBinAddr: 0x100017AC4, symSize: 0x6C }
  - { offsetInCU: 0x20F6B, offset: 0x28C22, size: 0x8, addend: 0x0, symName: __ZNSt3__16__treeINS_12__value_typeINS_12basic_stringIcNS_11char_traitsIcEENS_9allocatorIcEEEEiEENS_19__map_value_compareIS7_S8_NS_4lessIS7_EELb1EEENS5_IS8_EEE12__node_allocB7v160006Ev, symObjAddr: 0x14B68, symBinAddr: 0x100017B30, symSize: 0x28 }
  - { offsetInCU: 0x20F94, offset: 0x28C4B, size: 0x8, addend: 0x0, symName: __ZNSt3__116allocator_traitsINS_9allocatorINS_11__tree_nodeINS_12__value_typeINS_12basic_stringIcNS_11char_traitsIcEENS1_IcEEEEiEEPvEEEEE7destroyB7v160006INS_4pairIKS8_iEEvvEEvRSC_PT_, symObjAddr: 0x14B90, symBinAddr: 0x100017B58, symSize: 0x28 }
  - { offsetInCU: 0x20FD0, offset: 0x28C87, size: 0x8, addend: 0x0, symName: __ZNSt3__122__tree_key_value_typesINS_12__value_typeINS_12basic_stringIcNS_11char_traitsIcEENS_9allocatorIcEEEEiEEE9__get_ptrB7v160006ERS8_, symObjAddr: 0x14BB8, symBinAddr: 0x100017B80, symSize: 0x24 }
  - { offsetInCU: 0x20FF3, offset: 0x28CAA, size: 0x8, addend: 0x0, symName: __ZNSt3__116allocator_traitsINS_9allocatorINS_11__tree_nodeINS_12__value_typeINS_12basic_stringIcNS_11char_traitsIcEENS1_IcEEEEiEEPvEEEEE10deallocateB7v160006ERSC_PSB_m, symObjAddr: 0x14BDC, symBinAddr: 0x100017BA4, symSize: 0x34 }
  - { offsetInCU: 0x21034, offset: 0x28CEB, size: 0x8, addend: 0x0, symName: __ZNSt3__117__compressed_pairINS_15__tree_end_nodeIPNS_16__tree_node_baseIPvEEEENS_9allocatorINS_11__tree_nodeINS_12__value_typeINS_12basic_stringIcNS_11char_traitsIcEENS7_IcEEEEiEES3_EEEEE6secondB7v160006Ev, symObjAddr: 0x14C10, symBinAddr: 0x100017BD8, symSize: 0x24 }
  - { offsetInCU: 0x21058, offset: 0x28D0F, size: 0x8, addend: 0x0, symName: __ZNSt3__122__compressed_pair_elemINS_9allocatorINS_11__tree_nodeINS_12__value_typeINS_12basic_stringIcNS_11char_traitsIcEENS1_IcEEEEiEEPvEEEELi1ELb1EE5__getB7v160006Ev, symObjAddr: 0x14C34, symBinAddr: 0x100017BFC, symSize: 0x14 }
  - { offsetInCU: 0x2107C, offset: 0x28D33, size: 0x8, addend: 0x0, symName: __ZNSt3__14pairIKNS_12basic_stringIcNS_11char_traitsIcEENS_9allocatorIcEEEEiED1Ev, symObjAddr: 0x14C48, symBinAddr: 0x100017C10, symSize: 0x2C }
  - { offsetInCU: 0x210A7, offset: 0x28D5E, size: 0x8, addend: 0x0, symName: __ZNSt3__14pairIKNS_12basic_stringIcNS_11char_traitsIcEENS_9allocatorIcEEEEiED2Ev, symObjAddr: 0x14C74, symBinAddr: 0x100017C3C, symSize: 0x2C }
  - { offsetInCU: 0x210D2, offset: 0x28D89, size: 0x8, addend: 0x0, symName: __ZNSt3__112__value_typeINS_12basic_stringIcNS_11char_traitsIcEENS_9allocatorIcEEEEiE11__get_valueB7v160006Ev, symObjAddr: 0x14CA0, symBinAddr: 0x100017C68, symSize: 0x24 }
  - { offsetInCU: 0x210F6, offset: 0x28DAD, size: 0x8, addend: 0x0, symName: __ZNSt3__19allocatorINS_11__tree_nodeINS_12__value_typeINS_12basic_stringIcNS_11char_traitsIcEENS0_IcEEEEiEEPvEEE10deallocateB7v160006EPSA_m, symObjAddr: 0x14CFC, symBinAddr: 0x100017CC4, symSize: 0x4C }
  - { offsetInCU: 0x21136, offset: 0x28DED, size: 0x8, addend: 0x0, symName: __ZNKSt3__16__treeINS_12__value_typeINS_12basic_stringIcNS_11char_traitsIcEENS_9allocatorIcEEEEiEENS_19__map_value_compareIS7_S8_NS_4lessIS7_EELb1EEENS5_IS8_EEE10__end_nodeB7v160006Ev, symObjAddr: 0x14E70, symBinAddr: 0x100017E38, symSize: 0x2C }
  - { offsetInCU: 0x2115A, offset: 0x28E11, size: 0x8, addend: 0x0, symName: __ZNKSt3__117__compressed_pairINS_15__tree_end_nodeIPNS_16__tree_node_baseIPvEEEENS_9allocatorINS_11__tree_nodeINS_12__value_typeINS_12basic_stringIcNS_11char_traitsIcEENS7_IcEEEEiEES3_EEEEE5firstB7v160006Ev, symObjAddr: 0x14E9C, symBinAddr: 0x100017E64, symSize: 0x24 }
  - { offsetInCU: 0x2117E, offset: 0x28E35, size: 0x8, addend: 0x0, symName: __ZNKSt3__122__compressed_pair_elemINS_15__tree_end_nodeIPNS_16__tree_node_baseIPvEEEELi0ELb0EE5__getB7v160006Ev, symObjAddr: 0x14EC0, symBinAddr: 0x100017E88, symSize: 0x14 }
  - { offsetInCU: 0x211A2, offset: 0x28E59, size: 0x8, addend: 0x0, symName: __ZNSt3__112basic_stringIcNS_11char_traitsIcEENS_9allocatorIcEEE15__make_iteratorB7v160006EPc, symObjAddr: 0x14ED4, symBinAddr: 0x100017E9C, symSize: 0x200 }
  - { offsetInCU: 0x211D7, offset: 0x28E8E, size: 0x8, addend: 0x0, symName: __ZNSt3__111__wrap_iterIPcEC1B7v160006EPKvS1_, symObjAddr: 0x150D4, symBinAddr: 0x10001809C, symSize: 0x3C }
  - { offsetInCU: 0x2121B, offset: 0x28ED2, size: 0x8, addend: 0x0, symName: __ZNSt3__111__wrap_iterIPcEC2B7v160006EPKvS1_, symObjAddr: 0x15110, symBinAddr: 0x1000180D8, symSize: 0x74 }
  - { offsetInCU: 0x2125F, offset: 0x28F16, size: 0x8, addend: 0x0, symName: __ZNSt3__19allocatorIcEC1B7v160006Ev, symObjAddr: 0x15184, symBinAddr: 0x10001814C, symSize: 0x2C }
  - { offsetInCU: 0x21287, offset: 0x28F3E, size: 0x8, addend: 0x0, symName: __ZNSt3__111char_traitsIcE4findEPKcmRS2_, symObjAddr: 0x156E0, symBinAddr: 0x100018668, symSize: 0xEC }
  - { offsetInCU: 0x212C5, offset: 0x28F7C, size: 0x8, addend: 0x0, symName: __ZNSt3__111char_traitsIcE7compareEPKcS3_m, symObjAddr: 0x157CC, symBinAddr: 0x100018754, symSize: 0x78 }
  - { offsetInCU: 0x21303, offset: 0x28FBA, size: 0x8, addend: 0x0, symName: __ZNSt3__115basic_stringbufIcNS_11char_traitsIcEENS_9allocatorIcEEEC1B7v160006ERKNS_12basic_stringIcS2_S4_EEj, symObjAddr: 0x158D0, symBinAddr: 0x100018834, symSize: 0x3C }
  - { offsetInCU: 0x21347, offset: 0x28FFE, size: 0x8, addend: 0x0, symName: __ZNSt3__115basic_stringbufIcNS_11char_traitsIcEENS_9allocatorIcEEEC2B7v160006ERKNS_12basic_stringIcS2_S4_EEj, symObjAddr: 0x1590C, symBinAddr: 0x100018870, symSize: 0x398 }
  - { offsetInCU: 0x2138E, offset: 0x29045, size: 0x8, addend: 0x0, symName: __ZNKSt3__112basic_stringIcNS_11char_traitsIcEENS_9allocatorIcEEE13get_allocatorB7v160006Ev, symObjAddr: 0x15CA4, symBinAddr: 0x100018C08, symSize: 0x24 }
  - { offsetInCU: 0x213B2, offset: 0x29069, size: 0x8, addend: 0x0, symName: __ZNSt3__112basic_stringIcNS_11char_traitsIcEENS_9allocatorIcEEEC1B7v160006ERKS4_, symObjAddr: 0x15CC8, symBinAddr: 0x100018C2C, symSize: 0x34 }
  - { offsetInCU: 0x213E9, offset: 0x290A0, size: 0x8, addend: 0x0, symName: __ZNKSt3__112basic_stringIcNS_11char_traitsIcEENS_9allocatorIcEEE7__allocB7v160006Ev, symObjAddr: 0x15CFC, symBinAddr: 0x100018C60, symSize: 0x24 }
  - { offsetInCU: 0x2140D, offset: 0x290C4, size: 0x8, addend: 0x0, symName: __ZNKSt3__117__compressed_pairINS_12basic_stringIcNS_11char_traitsIcEENS_9allocatorIcEEE5__repES5_E6secondB7v160006Ev, symObjAddr: 0x15D20, symBinAddr: 0x100018C84, symSize: 0x24 }
  - { offsetInCU: 0x21431, offset: 0x290E8, size: 0x8, addend: 0x0, symName: __ZNKSt3__122__compressed_pair_elemINS_9allocatorIcEELi1ELb1EE5__getB7v160006Ev, symObjAddr: 0x15D44, symBinAddr: 0x100018CA8, symSize: 0x14 }
  - { offsetInCU: 0x21455, offset: 0x2910C, size: 0x8, addend: 0x0, symName: __ZNSt3__112basic_stringIcNS_11char_traitsIcEENS_9allocatorIcEEEC2B7v160006ERKS4_, symObjAddr: 0x15D58, symBinAddr: 0x100018CBC, symSize: 0x204 }
  - { offsetInCU: 0x2148E, offset: 0x29145, size: 0x8, addend: 0x0, symName: __ZNSt3__117__compressed_pairINS_12basic_stringIcNS_11char_traitsIcEENS_9allocatorIcEEE5__repES5_EC1B7v160006INS_18__default_init_tagERKS5_EEOT_OT0_, symObjAddr: 0x15F5C, symBinAddr: 0x100018EC0, symSize: 0x3C }
  - { offsetInCU: 0x214E4, offset: 0x2919B, size: 0x8, addend: 0x0, symName: __ZNSt3__117__compressed_pairINS_12basic_stringIcNS_11char_traitsIcEENS_9allocatorIcEEE5__repES5_EC2B7v160006INS_18__default_init_tagERKS5_EEOT_OT0_, symObjAddr: 0x15F98, symBinAddr: 0x100018EFC, symSize: 0x40 }
  - { offsetInCU: 0x2153A, offset: 0x291F1, size: 0x8, addend: 0x0, symName: __ZNSt3__122__compressed_pair_elemINS_9allocatorIcEELi1ELb1EEC2B7v160006IRKS2_vEEOT_, symObjAddr: 0x15FD8, symBinAddr: 0x100018F3C, symSize: 0x18 }
  - { offsetInCU: 0x21599, offset: 0x29250, size: 0x8, addend: 0x0, symName: __ZNKSt3__113basic_istreamIcNS_11char_traitsIcEEE6sentrycvbB7v160006Ev, symObjAddr: 0x15FF0, symBinAddr: 0x100018F54, symSize: 0x88 }
  - { offsetInCU: 0x215BD, offset: 0x29274, size: 0x8, addend: 0x0, symName: __ZNSt3__112basic_stringIcNS_11char_traitsIcEENS_9allocatorIcEEE5clearB7v160006Ev, symObjAddr: 0x16078, symBinAddr: 0x100018FDC, symSize: 0x328 }
  - { offsetInCU: 0x215E4, offset: 0x2929B, size: 0x8, addend: 0x0, symName: __ZNSt3__115basic_streambufIcNS_11char_traitsIcEEE6sbumpcB7v160006Ev, symObjAddr: 0x163C4, symBinAddr: 0x100019304, symSize: 0x1EC }
  - { offsetInCU: 0x21608, offset: 0x292BF, size: 0x8, addend: 0x0, symName: __ZNSt3__111char_traitsIcE12to_char_typeEi, symObjAddr: 0x165D8, symBinAddr: 0x1000194F0, symSize: 0x18 }
  - { offsetInCU: 0x2162A, offset: 0x292E1, size: 0x8, addend: 0x0, symName: __ZNSt3__111char_traitsIcE2eqEcc, symObjAddr: 0x165F0, symBinAddr: 0x100019508, symSize: 0x28 }
  - { offsetInCU: 0x2165A, offset: 0x29311, size: 0x8, addend: 0x0, symName: __ZNKSt3__112basic_stringIcNS_11char_traitsIcEENS_9allocatorIcEEE8max_sizeB7v160006Ev, symObjAddr: 0x16618, symBinAddr: 0x100019530, symSize: 0xBC }
  - { offsetInCU: 0x216AB, offset: 0x29362, size: 0x8, addend: 0x0, symName: __ZNSt3__18ios_base18__setstate_nothrowB7v160006Ej, symObjAddr: 0x166D4, symBinAddr: 0x1000195EC, symSize: 0x178 }
  - { offsetInCU: 0x216DE, offset: 0x29395, size: 0x8, addend: 0x0, symName: __ZNKSt3__19basic_iosIcNS_11char_traitsIcEEE10exceptionsB7v160006Ev, symObjAddr: 0x1684C, symBinAddr: 0x100019764, symSize: 0x24 }
  - { offsetInCU: 0x21702, offset: 0x293B9, size: 0x8, addend: 0x0, symName: __ZNSt3__111char_traitsIcE6assignERcRKc, symObjAddr: 0x16880, symBinAddr: 0x100019798, symSize: 0xF4 }
  - { offsetInCU: 0x21732, offset: 0x293E9, size: 0x8, addend: 0x0, symName: __ZNSt3__112basic_stringIcNS_11char_traitsIcEENS_9allocatorIcEEE15__set_long_sizeB7v160006Em, symObjAddr: 0x16974, symBinAddr: 0x10001988C, symSize: 0x80 }
  - { offsetInCU: 0x21765, offset: 0x2941C, size: 0x8, addend: 0x0, symName: __ZNSt3__112basic_stringIcNS_11char_traitsIcEENS_9allocatorIcEEE16__set_short_sizeB7v160006Em, symObjAddr: 0x169F4, symBinAddr: 0x10001990C, symSize: 0x130 }
  - { offsetInCU: 0x21798, offset: 0x2944F, size: 0x8, addend: 0x0, symName: __ZNSt3__111char_traitsIcE11to_int_typeEc, symObjAddr: 0x16B88, symBinAddr: 0x100019A3C, symSize: 0x14 }
  - { offsetInCU: 0x217C4, offset: 0x2947B, size: 0x8, addend: 0x0, symName: __ZNSt3__116allocator_traitsINS_9allocatorIcEEE8max_sizeB7v160006IS2_vEEmRKS2_, symObjAddr: 0x16B9C, symBinAddr: 0x100019A50, symSize: 0x24 }
  - { offsetInCU: 0x217F2, offset: 0x294A9, size: 0x8, addend: 0x0, symName: __ZNSt3__114numeric_limitsImE3maxB7v160006Ev, symObjAddr: 0x16BC0, symBinAddr: 0x100019A74, symSize: 0x14 }
  - { offsetInCU: 0x21806, offset: 0x294BD, size: 0x8, addend: 0x0, symName: __ZNKSt3__19allocatorIcE8max_sizeB7v160006Ev, symObjAddr: 0x16BD4, symBinAddr: 0x100019A88, symSize: 0x14 }
  - { offsetInCU: 0x2182A, offset: 0x294E1, size: 0x8, addend: 0x0, symName: __ZNSt3__123__libcpp_numeric_limitsImLb1EE3maxB7v160006Ev, symObjAddr: 0x16BE8, symBinAddr: 0x100019A9C, symSize: 0x8 }
  - { offsetInCU: 0x2183D, offset: 0x294F4, size: 0x8, addend: 0x0, symName: __ZNKSt3__18ios_base10exceptionsB7v160006Ev, symObjAddr: 0x16BF0, symBinAddr: 0x100019AA4, symSize: 0x8C }
  - { offsetInCU: 0x21863, offset: 0x2951A, size: 0x8, addend: 0x0, symName: __ZNSt3__16vectorIiNS_9allocatorIiEEEC2Em, symObjAddr: 0x16C7C, symBinAddr: 0x100019B30, symSize: 0x49C }
  - { offsetInCU: 0x218BD, offset: 0x29574, size: 0x8, addend: 0x0, symName: __ZNSt3__117__compressed_pairIPiNS_9allocatorIiEEEC1B7v160006IDnNS_18__default_init_tagEEEOT_OT0_, symObjAddr: 0x17118, symBinAddr: 0x100019FCC, symSize: 0x3C }
  - { offsetInCU: 0x21913, offset: 0x295CA, size: 0x8, addend: 0x0, symName: __ZNSt3__16vectorIiNS_9allocatorIiEEE16__destroy_vectorC1ERS3_, symObjAddr: 0x173CC, symBinAddr: 0x10001A280, symSize: 0x34 }
  - { offsetInCU: 0x2194A, offset: 0x29601, size: 0x8, addend: 0x0, symName: __ZNSt3__16vectorIiNS_9allocatorIiEEE11__vallocateB7v160006Em, symObjAddr: 0x17410, symBinAddr: 0x10001A2C4, symSize: 0x420 }
  - { offsetInCU: 0x21992, offset: 0x29649, size: 0x8, addend: 0x0, symName: __ZNSt3__16vectorIiNS_9allocatorIiEEE18__construct_at_endEm, symObjAddr: 0x17830, symBinAddr: 0x10001A6E4, symSize: 0x3E4 }
  - { offsetInCU: 0x21A0B, offset: 0x296C2, size: 0x8, addend: 0x0, symName: __ZNSt3__128__exception_guard_exceptionsINS_6vectorIiNS_9allocatorIiEEE16__destroy_vectorEE10__completeB7v160006Ev, symObjAddr: 0x17C14, symBinAddr: 0x10001AAC8, symSize: 0x8C }
  - { offsetInCU: 0x21A2F, offset: 0x296E6, size: 0x8, addend: 0x0, symName: __ZNSt3__128__exception_guard_exceptionsINS_6vectorIiNS_9allocatorIiEEE16__destroy_vectorEED1B7v160006Ev, symObjAddr: 0x17CA0, symBinAddr: 0x10001AB54, symSize: 0x2C }
  - { offsetInCU: 0x21A57, offset: 0x2970E, size: 0x8, addend: 0x0, symName: __ZNSt3__117__compressed_pairIPiNS_9allocatorIiEEEC2B7v160006IDnNS_18__default_init_tagEEEOT_OT0_, symObjAddr: 0x17CCC, symBinAddr: 0x10001AB80, symSize: 0x40 }
  - { offsetInCU: 0x21AAD, offset: 0x29764, size: 0x8, addend: 0x0, symName: __ZNSt3__122__compressed_pair_elemIPiLi0ELb0EEC2B7v160006IDnvEEOT_, symObjAddr: 0x17D0C, symBinAddr: 0x10001ABC0, symSize: 0x64 }
  - { offsetInCU: 0x21AEE, offset: 0x297A5, size: 0x8, addend: 0x0, symName: __ZNSt3__122__compressed_pair_elemINS_9allocatorIiEELi1ELb1EEC2B7v160006ENS_18__default_init_tagE, symObjAddr: 0x17D70, symBinAddr: 0x10001AC24, symSize: 0x2C }
  - { offsetInCU: 0x21B20, offset: 0x297D7, size: 0x8, addend: 0x0, symName: __ZNSt3__19allocatorIiEC2B7v160006Ev, symObjAddr: 0x17D9C, symBinAddr: 0x10001AC50, symSize: 0x2C }
  - { offsetInCU: 0x21B48, offset: 0x297FF, size: 0x8, addend: 0x0, symName: __ZNSt3__116__non_trivial_ifILb1ENS_9allocatorIiEEEC2B7v160006Ev, symObjAddr: 0x17DC8, symBinAddr: 0x10001AC7C, symSize: 0x14 }
  - { offsetInCU: 0x21B70, offset: 0x29827, size: 0x8, addend: 0x0, symName: __ZNSt3__128__exception_guard_exceptionsINS_6vectorIiNS_9allocatorIiEEE16__destroy_vectorEEC1B7v160006ES5_, symObjAddr: 0x17DDC, symBinAddr: 0x10001AC90, symSize: 0x238 }
  - { offsetInCU: 0x21BAB, offset: 0x29862, size: 0x8, addend: 0x0, symName: __ZNSt3__128__exception_guard_exceptionsINS_6vectorIiNS_9allocatorIiEEE16__destroy_vectorEEC2B7v160006ES5_, symObjAddr: 0x18014, symBinAddr: 0x10001AEC8, symSize: 0x264 }
  - { offsetInCU: 0x21BE6, offset: 0x2989D, size: 0x8, addend: 0x0, symName: __ZNSt3__16vectorIiNS_9allocatorIiEEE16__destroy_vectorC2ERS3_, symObjAddr: 0x18278, symBinAddr: 0x10001B12C, symSize: 0x70 }
  - { offsetInCU: 0x21C1D, offset: 0x298D4, size: 0x8, addend: 0x0, symName: __ZNKSt3__16vectorIiNS_9allocatorIiEEE8max_sizeEv, symObjAddr: 0x182E8, symBinAddr: 0x10001B19C, symSize: 0x2FC }
  - { offsetInCU: 0x21C44, offset: 0x298FB, size: 0x8, addend: 0x0, symName: __ZNKSt3__16vectorIiNS_9allocatorIiEEE20__throw_length_errorB7v160006Ev, symObjAddr: 0x185E4, symBinAddr: 0x10001B498, symSize: 0x20 }
  - { offsetInCU: 0x21C68, offset: 0x2991F, size: 0x8, addend: 0x0, symName: __ZNSt3__16vectorIiNS_9allocatorIiEEE7__allocB7v160006Ev, symObjAddr: 0x18890, symBinAddr: 0x10001B744, symSize: 0x28 }
  - { offsetInCU: 0x21C8C, offset: 0x29943, size: 0x8, addend: 0x0, symName: __ZNSt3__16vectorIiNS_9allocatorIiEEE9__end_capB7v160006Ev, symObjAddr: 0x188B8, symBinAddr: 0x10001B76C, symSize: 0x28 }
  - { offsetInCU: 0x21CB0, offset: 0x29967, size: 0x8, addend: 0x0, symName: __ZNKSt3__16vectorIiNS_9allocatorIiEEE14__annotate_newB7v160006Em, symObjAddr: 0x188E0, symBinAddr: 0x10001B794, symSize: 0xC0 }
  - { offsetInCU: 0x21CED, offset: 0x299A4, size: 0x8, addend: 0x0, symName: __ZNSt3__116allocator_traitsINS_9allocatorIiEEE8max_sizeB7v160006IS2_vEEmRKS2_, symObjAddr: 0x189CC, symBinAddr: 0x10001B880, symSize: 0x24 }
  - { offsetInCU: 0x21D1B, offset: 0x299D2, size: 0x8, addend: 0x0, symName: __ZNKSt3__16vectorIiNS_9allocatorIiEEE7__allocB7v160006Ev, symObjAddr: 0x189F0, symBinAddr: 0x10001B8A4, symSize: 0x28 }
  - { offsetInCU: 0x21D3F, offset: 0x299F6, size: 0x8, addend: 0x0, symName: __ZNSt3__114numeric_limitsIlE3maxB7v160006Ev, symObjAddr: 0x18A18, symBinAddr: 0x10001B8CC, symSize: 0x14 }
  - { offsetInCU: 0x21D5D, offset: 0x29A14, size: 0x8, addend: 0x0, symName: __ZNKSt3__16__lessImmEclB7v160006ERKmS3_, symObjAddr: 0x18C14, symBinAddr: 0x10001BAC8, symSize: 0xBC }
  - { offsetInCU: 0x21D9D, offset: 0x29A54, size: 0x8, addend: 0x0, symName: __ZNKSt3__19allocatorIiE8max_sizeB7v160006Ev, symObjAddr: 0x18CD0, symBinAddr: 0x10001BB84, symSize: 0x14 }
  - { offsetInCU: 0x21DC1, offset: 0x29A78, size: 0x8, addend: 0x0, symName: __ZNKSt3__117__compressed_pairIPiNS_9allocatorIiEEE6secondB7v160006Ev, symObjAddr: 0x18CE4, symBinAddr: 0x10001BB98, symSize: 0x24 }
  - { offsetInCU: 0x21DE5, offset: 0x29A9C, size: 0x8, addend: 0x0, symName: __ZNKSt3__122__compressed_pair_elemINS_9allocatorIiEELi1ELb1EE5__getB7v160006Ev, symObjAddr: 0x18D08, symBinAddr: 0x10001BBBC, symSize: 0x14 }
  - { offsetInCU: 0x21E09, offset: 0x29AC0, size: 0x8, addend: 0x0, symName: __ZNSt3__123__libcpp_numeric_limitsIlLb1EE3maxB7v160006Ev, symObjAddr: 0x18D1C, symBinAddr: 0x10001BBD0, symSize: 0x8 }
  - { offsetInCU: 0x21E1C, offset: 0x29AD3, size: 0x8, addend: 0x0, symName: __ZNSt12length_errorC1B7v160006EPKc, symObjAddr: 0x18D8C, symBinAddr: 0x10001BC40, symSize: 0x34 }
  - { offsetInCU: 0x21E52, offset: 0x29B09, size: 0x8, addend: 0x0, symName: __ZNSt12length_errorC2B7v160006EPKc, symObjAddr: 0x18DC0, symBinAddr: 0x10001BC74, symSize: 0x8C }
  - { offsetInCU: 0x21E88, offset: 0x29B3F, size: 0x8, addend: 0x0, symName: __ZNSt3__19allocatorIiE8allocateB7v160006Em, symObjAddr: 0x18E4C, symBinAddr: 0x10001BD00, symSize: 0x5C }
  - { offsetInCU: 0x21EBA, offset: 0x29B71, size: 0x8, addend: 0x0, symName: __ZNSt3__117__compressed_pairIPiNS_9allocatorIiEEE6secondB7v160006Ev, symObjAddr: 0x18F90, symBinAddr: 0x10001BE44, symSize: 0x24 }
  - { offsetInCU: 0x21EDE, offset: 0x29B95, size: 0x8, addend: 0x0, symName: __ZNSt3__122__compressed_pair_elemINS_9allocatorIiEELi1ELb1EE5__getB7v160006Ev, symObjAddr: 0x18FB4, symBinAddr: 0x10001BE68, symSize: 0x14 }
  - { offsetInCU: 0x21F02, offset: 0x29BB9, size: 0x8, addend: 0x0, symName: __ZNSt3__117__compressed_pairIPiNS_9allocatorIiEEE5firstB7v160006Ev, symObjAddr: 0x18FC8, symBinAddr: 0x10001BE7C, symSize: 0x24 }
  - { offsetInCU: 0x21F26, offset: 0x29BDD, size: 0x8, addend: 0x0, symName: __ZNSt3__122__compressed_pair_elemIPiLi0ELb0EE5__getB7v160006Ev, symObjAddr: 0x18FEC, symBinAddr: 0x10001BEA0, symSize: 0x14 }
  - { offsetInCU: 0x21F4A, offset: 0x29C01, size: 0x8, addend: 0x0, symName: __ZNKSt3__16vectorIiNS_9allocatorIiEEE31__annotate_contiguous_containerEPKvS5_S5_S5_, symObjAddr: 0x19000, symBinAddr: 0x10001BEB4, symSize: 0x58 }
  - { offsetInCU: 0x21FAA, offset: 0x29C61, size: 0x8, addend: 0x0, symName: __ZNKSt3__16vectorIiNS_9allocatorIiEEE4dataB7v160006Ev, symObjAddr: 0x19058, symBinAddr: 0x10001BF0C, symSize: 0x64 }
  - { offsetInCU: 0x21FCE, offset: 0x29C85, size: 0x8, addend: 0x0, symName: __ZNKSt3__16vectorIiNS_9allocatorIiEEE8capacityB7v160006Ev, symObjAddr: 0x190BC, symBinAddr: 0x10001BF70, symSize: 0xBC }
  - { offsetInCU: 0x21FF2, offset: 0x29CA9, size: 0x8, addend: 0x0, symName: __ZNKSt3__16vectorIiNS_9allocatorIiEEE9__end_capB7v160006Ev, symObjAddr: 0x1918C, symBinAddr: 0x10001C040, symSize: 0x28 }
  - { offsetInCU: 0x22016, offset: 0x29CCD, size: 0x8, addend: 0x0, symName: __ZNKSt3__117__compressed_pairIPiNS_9allocatorIiEEE5firstB7v160006Ev, symObjAddr: 0x191B4, symBinAddr: 0x10001C068, symSize: 0x24 }
  - { offsetInCU: 0x2203A, offset: 0x29CF1, size: 0x8, addend: 0x0, symName: __ZNKSt3__122__compressed_pair_elemIPiLi0ELb0EE5__getB7v160006Ev, symObjAddr: 0x191D8, symBinAddr: 0x10001C08C, symSize: 0x14 }
  - { offsetInCU: 0x22077, offset: 0x29D2E, size: 0x8, addend: 0x0, symName: __ZNSt3__16vectorIiNS_9allocatorIiEEE21_ConstructTransactionC1B7v160006ERS3_m, symObjAddr: 0x191EC, symBinAddr: 0x10001C0A0, symSize: 0x3C }
  - { offsetInCU: 0x220BD, offset: 0x29D74, size: 0x8, addend: 0x0, symName: __ZNSt3__116allocator_traitsINS_9allocatorIiEEE9constructB7v160006IiJEvEEvRS2_PT_DpOT0_, symObjAddr: 0x19228, symBinAddr: 0x10001C0DC, symSize: 0x2C }
  - { offsetInCU: 0x22100, offset: 0x29DB7, size: 0x8, addend: 0x0, symName: __ZNSt3__16vectorIiNS_9allocatorIiEEE21_ConstructTransactionD1B7v160006Ev, symObjAddr: 0x19254, symBinAddr: 0x10001C108, symSize: 0x2C }
  - { offsetInCU: 0x22128, offset: 0x29DDF, size: 0x8, addend: 0x0, symName: __ZNSt3__16vectorIiNS_9allocatorIiEEE21_ConstructTransactionC2B7v160006ERS3_m, symObjAddr: 0x19280, symBinAddr: 0x10001C134, symSize: 0x1D0 }
  - { offsetInCU: 0x2216E, offset: 0x29E25, size: 0x8, addend: 0x0, symName: __ZNKSt3__16vectorIiNS_9allocatorIiEEE19__annotate_increaseB7v160006Em, symObjAddr: 0x19450, symBinAddr: 0x10001C304, symSize: 0xD8 }
  - { offsetInCU: 0x221A1, offset: 0x29E58, size: 0x8, addend: 0x0, symName: __ZNSt3__19allocatorIiE9constructB7v160006IiJEEEvPT_DpOT0_, symObjAddr: 0x19528, symBinAddr: 0x10001C3DC, symSize: 0x8C }
  - { offsetInCU: 0x221E2, offset: 0x29E99, size: 0x8, addend: 0x0, symName: __ZNSt3__16vectorIiNS_9allocatorIiEEE21_ConstructTransactionD2B7v160006Ev, symObjAddr: 0x195B4, symBinAddr: 0x10001C468, symSize: 0x278 }
  - { offsetInCU: 0x2220A, offset: 0x29EC1, size: 0x8, addend: 0x0, symName: __ZNKSt3__16vectorIiNS_9allocatorIiEEE17__annotate_shrinkB7v160006Em, symObjAddr: 0x1982C, symBinAddr: 0x10001C6E0, symSize: 0xC8 }
  - { offsetInCU: 0x2223D, offset: 0x29EF4, size: 0x8, addend: 0x0, symName: __ZNSt3__128__exception_guard_exceptionsINS_6vectorIiNS_9allocatorIiEEE16__destroy_vectorEED2B7v160006Ev, symObjAddr: 0x198F4, symBinAddr: 0x10001C7A8, symSize: 0xBC }
  - { offsetInCU: 0x22265, offset: 0x29F1C, size: 0x8, addend: 0x0, symName: __ZNSt3__16vectorIiNS_9allocatorIiEEE16__destroy_vectorclB7v160006Ev, symObjAddr: 0x199B0, symBinAddr: 0x10001C864, symSize: 0x264 }
  - { offsetInCU: 0x22289, offset: 0x29F40, size: 0x8, addend: 0x0, symName: __ZNKSt3__16vectorIiNS_9allocatorIiEEE17__annotate_deleteB7v160006Ev, symObjAddr: 0x19C14, symBinAddr: 0x10001CAC8, symSize: 0xCC }
  - { offsetInCU: 0x222AD, offset: 0x29F64, size: 0x8, addend: 0x0, symName: __ZNSt3__16vectorIiNS_9allocatorIiEEE7__clearB7v160006Ev, symObjAddr: 0x19CF0, symBinAddr: 0x10001CBA4, symSize: 0x64 }
  - { offsetInCU: 0x222D1, offset: 0x29F88, size: 0x8, addend: 0x0, symName: __ZNSt3__116allocator_traitsINS_9allocatorIiEEE10deallocateB7v160006ERS2_Pim, symObjAddr: 0x19D54, symBinAddr: 0x10001CC08, symSize: 0x34 }
  - { offsetInCU: 0x22312, offset: 0x29FC9, size: 0x8, addend: 0x0, symName: __ZNSt3__16vectorIiNS_9allocatorIiEEE22__base_destruct_at_endB7v160006EPi, symObjAddr: 0x19D88, symBinAddr: 0x10001CC3C, symSize: 0x114 }
  - { offsetInCU: 0x22354, offset: 0x2A00B, size: 0x8, addend: 0x0, symName: __ZNSt3__116allocator_traitsINS_9allocatorIiEEE7destroyB7v160006IivEEvRS2_PT_, symObjAddr: 0x19E9C, symBinAddr: 0x10001CD50, symSize: 0x2C }
  - { offsetInCU: 0x22391, offset: 0x2A048, size: 0x8, addend: 0x0, symName: __ZNSt3__19allocatorIiE7destroyB7v160006EPi, symObjAddr: 0x19EC8, symBinAddr: 0x10001CD7C, symSize: 0x14 }
  - { offsetInCU: 0x223C3, offset: 0x2A07A, size: 0x8, addend: 0x0, symName: __ZNSt3__19allocatorIiE10deallocateB7v160006EPim, symObjAddr: 0x19EDC, symBinAddr: 0x10001CD90, symSize: 0x4C }
  - { offsetInCU: 0x22403, offset: 0x2A0BA, size: 0x8, addend: 0x0, symName: __ZNSt3__16vectorIiNS_9allocatorIiEEED2B7v160006Ev, symObjAddr: 0x19F28, symBinAddr: 0x10001CDDC, symSize: 0x1F8 }
  - { offsetInCU: 0x2242C, offset: 0x2A0E3, size: 0x8, addend: 0x0, symName: __ZNKSt3__112basic_stringIcNS_11char_traitsIcEENS_9allocatorIcEEE15__get_long_sizeB7v160006Ev, symObjAddr: 0x1A120, symBinAddr: 0x10001CFD4, symSize: 0x70 }
  - { offsetInCU: 0x22450, offset: 0x2A107, size: 0x8, addend: 0x0, symName: __ZNKSt3__112basic_stringIcNS_11char_traitsIcEENS_9allocatorIcEEE16__get_short_sizeB7v160006Ev, symObjAddr: 0x1A190, symBinAddr: 0x10001D044, symSize: 0xA0 }
  - { offsetInCU: 0x22474, offset: 0x2A12B, size: 0x8, addend: 0x0, symName: __ZNSt3__119istreambuf_iteratorIcNS_11char_traitsIcEEEC2B7v160006ERNS_13basic_istreamIcS2_EE, symObjAddr: 0x1A230, symBinAddr: 0x10001D0E4, symSize: 0x10C }
  - { offsetInCU: 0x224AA, offset: 0x2A161, size: 0x8, addend: 0x0, symName: __ZNKSt3__119istreambuf_iteratorIcNS_11char_traitsIcEEEdeB7v160006Ev, symObjAddr: 0x1A370, symBinAddr: 0x10001D224, symSize: 0x68 }
  - { offsetInCU: 0x224CE, offset: 0x2A185, size: 0x8, addend: 0x0, symName: __ZNSt3__119istreambuf_iteratorIcNS_11char_traitsIcEEEppB7v160006Ev, symObjAddr: 0x1A3D8, symBinAddr: 0x10001D28C, symSize: 0x68 }
  - { offsetInCU: 0x224F2, offset: 0x2A1A9, size: 0x8, addend: 0x0, symName: __ZNKSt3__119istreambuf_iteratorIcNS_11char_traitsIcEEE5equalB7v160006ERKS3_, symObjAddr: 0x1A440, symBinAddr: 0x10001D2F4, symSize: 0x4C }
  - { offsetInCU: 0x22524, offset: 0x2A1DB, size: 0x8, addend: 0x0, symName: __ZNKSt3__119istreambuf_iteratorIcNS_11char_traitsIcEEE14__test_for_eofB7v160006Ev, symObjAddr: 0x1A48C, symBinAddr: 0x10001D340, symSize: 0x14C }
  - { offsetInCU: 0x22548, offset: 0x2A1FF, size: 0x8, addend: 0x0, symName: __ZNSt3__115basic_streambufIcNS_11char_traitsIcEEE5sgetcB7v160006Ev, symObjAddr: 0x1A5D8, symBinAddr: 0x10001D48C, symSize: 0x1E4 }
  - { offsetInCU: 0x2256C, offset: 0x2A223, size: 0x8, addend: 0x0, symName: __ZNSt3__14fposI11__mbstate_tEC2B7v160006Ex, symObjAddr: 0x1A7BC, symBinAddr: 0x10001D670, symSize: 0x8C }
  - { offsetInCU: 0x225A2, offset: 0x2A259, size: 0x8, addend: 0x0, symName: __ZNSt3__16vectorIcNS_9allocatorIcEEEC2Em, symObjAddr: 0x1A848, symBinAddr: 0x10001D6FC, symSize: 0x49C }
  - { offsetInCU: 0x225F7, offset: 0x2A2AE, size: 0x8, addend: 0x0, symName: __ZNSt3__117__compressed_pairIPcNS_9allocatorIcEEEC1B7v160006IDnNS_18__default_init_tagEEEOT_OT0_, symObjAddr: 0x1ACE4, symBinAddr: 0x10001DB98, symSize: 0x3C }
  - { offsetInCU: 0x2264D, offset: 0x2A304, size: 0x8, addend: 0x0, symName: __ZNSt3__16vectorIcNS_9allocatorIcEEE16__destroy_vectorC1ERS3_, symObjAddr: 0x1AF98, symBinAddr: 0x10001DE4C, symSize: 0x34 }
  - { offsetInCU: 0x22684, offset: 0x2A33B, size: 0x8, addend: 0x0, symName: __ZNSt3__16vectorIcNS_9allocatorIcEEE11__vallocateB7v160006Em, symObjAddr: 0x1AFDC, symBinAddr: 0x10001DE90, symSize: 0x420 }
  - { offsetInCU: 0x226CC, offset: 0x2A383, size: 0x8, addend: 0x0, symName: __ZNSt3__16vectorIcNS_9allocatorIcEEE18__construct_at_endEm, symObjAddr: 0x1B3FC, symBinAddr: 0x10001E2B0, symSize: 0x3E4 }
  - { offsetInCU: 0x22745, offset: 0x2A3FC, size: 0x8, addend: 0x0, symName: __ZNSt3__128__exception_guard_exceptionsINS_6vectorIcNS_9allocatorIcEEE16__destroy_vectorEE10__completeB7v160006Ev, symObjAddr: 0x1B7E0, symBinAddr: 0x10001E694, symSize: 0x8C }
  - { offsetInCU: 0x22769, offset: 0x2A420, size: 0x8, addend: 0x0, symName: __ZNSt3__128__exception_guard_exceptionsINS_6vectorIcNS_9allocatorIcEEE16__destroy_vectorEED1B7v160006Ev, symObjAddr: 0x1B86C, symBinAddr: 0x10001E720, symSize: 0x2C }
  - { offsetInCU: 0x22791, offset: 0x2A448, size: 0x8, addend: 0x0, symName: __ZNSt3__117__compressed_pairIPcNS_9allocatorIcEEEC2B7v160006IDnNS_18__default_init_tagEEEOT_OT0_, symObjAddr: 0x1B898, symBinAddr: 0x10001E74C, symSize: 0x40 }
  - { offsetInCU: 0x227E7, offset: 0x2A49E, size: 0x8, addend: 0x0, symName: __ZNSt3__122__compressed_pair_elemIPcLi0ELb0EEC2B7v160006IDnvEEOT_, symObjAddr: 0x1B8D8, symBinAddr: 0x10001E78C, symSize: 0x64 }
  - { offsetInCU: 0x22828, offset: 0x2A4DF, size: 0x8, addend: 0x0, symName: __ZNSt3__128__exception_guard_exceptionsINS_6vectorIcNS_9allocatorIcEEE16__destroy_vectorEEC1B7v160006ES5_, symObjAddr: 0x1B93C, symBinAddr: 0x10001E7F0, symSize: 0x238 }
  - { offsetInCU: 0x22863, offset: 0x2A51A, size: 0x8, addend: 0x0, symName: __ZNSt3__128__exception_guard_exceptionsINS_6vectorIcNS_9allocatorIcEEE16__destroy_vectorEEC2B7v160006ES5_, symObjAddr: 0x1BB74, symBinAddr: 0x10001EA28, symSize: 0x264 }
  - { offsetInCU: 0x2289E, offset: 0x2A555, size: 0x8, addend: 0x0, symName: __ZNSt3__16vectorIcNS_9allocatorIcEEE16__destroy_vectorC2ERS3_, symObjAddr: 0x1BDD8, symBinAddr: 0x10001EC8C, symSize: 0x70 }
  - { offsetInCU: 0x228D5, offset: 0x2A58C, size: 0x8, addend: 0x0, symName: __ZNKSt3__16vectorIcNS_9allocatorIcEEE8max_sizeEv, symObjAddr: 0x1BE48, symBinAddr: 0x10001ECFC, symSize: 0x2FC }
  - { offsetInCU: 0x228FC, offset: 0x2A5B3, size: 0x8, addend: 0x0, symName: __ZNKSt3__16vectorIcNS_9allocatorIcEEE20__throw_length_errorB7v160006Ev, symObjAddr: 0x1C144, symBinAddr: 0x10001EFF8, symSize: 0x20 }
  - { offsetInCU: 0x22920, offset: 0x2A5D7, size: 0x8, addend: 0x0, symName: __ZNSt3__16vectorIcNS_9allocatorIcEEE7__allocB7v160006Ev, symObjAddr: 0x1C3F0, symBinAddr: 0x10001F2A4, symSize: 0x28 }
  - { offsetInCU: 0x22944, offset: 0x2A5FB, size: 0x8, addend: 0x0, symName: __ZNSt3__16vectorIcNS_9allocatorIcEEE9__end_capB7v160006Ev, symObjAddr: 0x1C418, symBinAddr: 0x10001F2CC, symSize: 0x28 }
  - { offsetInCU: 0x22968, offset: 0x2A61F, size: 0x8, addend: 0x0, symName: __ZNKSt3__16vectorIcNS_9allocatorIcEEE14__annotate_newB7v160006Em, symObjAddr: 0x1C440, symBinAddr: 0x10001F2F4, symSize: 0xC0 }
  - { offsetInCU: 0x2299B, offset: 0x2A652, size: 0x8, addend: 0x0, symName: __ZNKSt3__16vectorIcNS_9allocatorIcEEE7__allocB7v160006Ev, symObjAddr: 0x1C500, symBinAddr: 0x10001F3B4, symSize: 0x28 }
  - { offsetInCU: 0x229BF, offset: 0x2A676, size: 0x8, addend: 0x0, symName: __ZNKSt3__117__compressed_pairIPcNS_9allocatorIcEEE6secondB7v160006Ev, symObjAddr: 0x1C528, symBinAddr: 0x10001F3DC, symSize: 0x24 }
  - { offsetInCU: 0x229E3, offset: 0x2A69A, size: 0x8, addend: 0x0, symName: __ZNSt3__19allocatorIcE8allocateB7v160006Em, symObjAddr: 0x1C54C, symBinAddr: 0x10001F400, symSize: 0x5C }
  - { offsetInCU: 0x22A15, offset: 0x2A6CC, size: 0x8, addend: 0x0, symName: __ZNSt3__117__compressed_pairIPcNS_9allocatorIcEEE6secondB7v160006Ev, symObjAddr: 0x1C5A8, symBinAddr: 0x10001F45C, symSize: 0x24 }
  - { offsetInCU: 0x22A39, offset: 0x2A6F0, size: 0x8, addend: 0x0, symName: __ZNSt3__122__compressed_pair_elemINS_9allocatorIcEELi1ELb1EE5__getB7v160006Ev, symObjAddr: 0x1C5CC, symBinAddr: 0x10001F480, symSize: 0x14 }
  - { offsetInCU: 0x22A5D, offset: 0x2A714, size: 0x8, addend: 0x0, symName: __ZNSt3__117__compressed_pairIPcNS_9allocatorIcEEE5firstB7v160006Ev, symObjAddr: 0x1C5E0, symBinAddr: 0x10001F494, symSize: 0x24 }
  - { offsetInCU: 0x22A81, offset: 0x2A738, size: 0x8, addend: 0x0, symName: __ZNSt3__122__compressed_pair_elemIPcLi0ELb0EE5__getB7v160006Ev, symObjAddr: 0x1C604, symBinAddr: 0x10001F4B8, symSize: 0x14 }
  - { offsetInCU: 0x22AA5, offset: 0x2A75C, size: 0x8, addend: 0x0, symName: __ZNKSt3__16vectorIcNS_9allocatorIcEEE31__annotate_contiguous_containerEPKvS5_S5_S5_, symObjAddr: 0x1C618, symBinAddr: 0x10001F4CC, symSize: 0x58 }
  - { offsetInCU: 0x22B05, offset: 0x2A7BC, size: 0x8, addend: 0x0, symName: __ZNKSt3__16vectorIcNS_9allocatorIcEEE4dataB7v160006Ev, symObjAddr: 0x1C670, symBinAddr: 0x10001F524, symSize: 0x64 }
  - { offsetInCU: 0x22B29, offset: 0x2A7E0, size: 0x8, addend: 0x0, symName: __ZNKSt3__16vectorIcNS_9allocatorIcEEE8capacityB7v160006Ev, symObjAddr: 0x1C6D4, symBinAddr: 0x10001F588, symSize: 0xB4 }
  - { offsetInCU: 0x22B4D, offset: 0x2A804, size: 0x8, addend: 0x0, symName: __ZNKSt3__16vectorIcNS_9allocatorIcEEE9__end_capB7v160006Ev, symObjAddr: 0x1C79C, symBinAddr: 0x10001F63C, symSize: 0x28 }
  - { offsetInCU: 0x22B71, offset: 0x2A828, size: 0x8, addend: 0x0, symName: __ZNKSt3__117__compressed_pairIPcNS_9allocatorIcEEE5firstB7v160006Ev, symObjAddr: 0x1C7C4, symBinAddr: 0x10001F664, symSize: 0x24 }
  - { offsetInCU: 0x22B95, offset: 0x2A84C, size: 0x8, addend: 0x0, symName: __ZNKSt3__122__compressed_pair_elemIPcLi0ELb0EE5__getB7v160006Ev, symObjAddr: 0x1C7E8, symBinAddr: 0x10001F688, symSize: 0x14 }
  - { offsetInCU: 0x22BD2, offset: 0x2A889, size: 0x8, addend: 0x0, symName: __ZNSt3__16vectorIcNS_9allocatorIcEEE21_ConstructTransactionC1B7v160006ERS3_m, symObjAddr: 0x1C7FC, symBinAddr: 0x10001F69C, symSize: 0x3C }
  - { offsetInCU: 0x22C18, offset: 0x2A8CF, size: 0x8, addend: 0x0, symName: __ZNSt3__116allocator_traitsINS_9allocatorIcEEE9constructB7v160006IcJEvEEvRS2_PT_DpOT0_, symObjAddr: 0x1C838, symBinAddr: 0x10001F6D8, symSize: 0x2C }
  - { offsetInCU: 0x22C5B, offset: 0x2A912, size: 0x8, addend: 0x0, symName: __ZNSt3__16vectorIcNS_9allocatorIcEEE21_ConstructTransactionD1B7v160006Ev, symObjAddr: 0x1C864, symBinAddr: 0x10001F704, symSize: 0x2C }
  - { offsetInCU: 0x22C83, offset: 0x2A93A, size: 0x8, addend: 0x0, symName: __ZNSt3__16vectorIcNS_9allocatorIcEEE21_ConstructTransactionC2B7v160006ERS3_m, symObjAddr: 0x1C890, symBinAddr: 0x10001F730, symSize: 0x1D0 }
  - { offsetInCU: 0x22CC9, offset: 0x2A980, size: 0x8, addend: 0x0, symName: __ZNKSt3__16vectorIcNS_9allocatorIcEEE19__annotate_increaseB7v160006Em, symObjAddr: 0x1CA60, symBinAddr: 0x10001F900, symSize: 0xD8 }
  - { offsetInCU: 0x22CFC, offset: 0x2A9B3, size: 0x8, addend: 0x0, symName: __ZNKSt3__16vectorIcNS_9allocatorIcEEE4sizeB7v160006Ev, symObjAddr: 0x1CB38, symBinAddr: 0x10001F9D8, symSize: 0xA8 }
  - { offsetInCU: 0x22D20, offset: 0x2A9D7, size: 0x8, addend: 0x0, symName: __ZNSt3__19allocatorIcE9constructB7v160006IcJEEEvPT_DpOT0_, symObjAddr: 0x1CBE0, symBinAddr: 0x10001FA80, symSize: 0x88 }
  - { offsetInCU: 0x22D61, offset: 0x2AA18, size: 0x8, addend: 0x0, symName: __ZNSt3__16vectorIcNS_9allocatorIcEEE21_ConstructTransactionD2B7v160006Ev, symObjAddr: 0x1CC68, symBinAddr: 0x10001FB08, symSize: 0x270 }
  - { offsetInCU: 0x22D89, offset: 0x2AA40, size: 0x8, addend: 0x0, symName: __ZNKSt3__16vectorIcNS_9allocatorIcEEE17__annotate_shrinkB7v160006Em, symObjAddr: 0x1CED8, symBinAddr: 0x10001FD78, symSize: 0xC8 }
  - { offsetInCU: 0x22DBC, offset: 0x2AA73, size: 0x8, addend: 0x0, symName: __ZNSt3__128__exception_guard_exceptionsINS_6vectorIcNS_9allocatorIcEEE16__destroy_vectorEED2B7v160006Ev, symObjAddr: 0x1CFA0, symBinAddr: 0x10001FE40, symSize: 0xBC }
  - { offsetInCU: 0x22DE4, offset: 0x2AA9B, size: 0x8, addend: 0x0, symName: __ZNSt3__16vectorIcNS_9allocatorIcEEE16__destroy_vectorclB7v160006Ev, symObjAddr: 0x1D05C, symBinAddr: 0x10001FEFC, symSize: 0x264 }
  - { offsetInCU: 0x22E08, offset: 0x2AABF, size: 0x8, addend: 0x0, symName: __ZNKSt3__16vectorIcNS_9allocatorIcEEE17__annotate_deleteB7v160006Ev, symObjAddr: 0x1D2C0, symBinAddr: 0x100020160, symSize: 0xCC }
  - { offsetInCU: 0x22E2C, offset: 0x2AAE3, size: 0x8, addend: 0x0, symName: __ZNSt3__16vectorIcNS_9allocatorIcEEE7__clearB7v160006Ev, symObjAddr: 0x1D39C, symBinAddr: 0x10002023C, symSize: 0x64 }
  - { offsetInCU: 0x22E50, offset: 0x2AB07, size: 0x8, addend: 0x0, symName: __ZNSt3__116allocator_traitsINS_9allocatorIcEEE10deallocateB7v160006ERS2_Pcm, symObjAddr: 0x1D400, symBinAddr: 0x1000202A0, symSize: 0x34 }
  - { offsetInCU: 0x22E91, offset: 0x2AB48, size: 0x8, addend: 0x0, symName: __ZNSt3__16vectorIcNS_9allocatorIcEEE22__base_destruct_at_endB7v160006EPc, symObjAddr: 0x1D434, symBinAddr: 0x1000202D4, symSize: 0x114 }
  - { offsetInCU: 0x22ED3, offset: 0x2AB8A, size: 0x8, addend: 0x0, symName: __ZNSt3__116allocator_traitsINS_9allocatorIcEEE7destroyB7v160006IcvEEvRS2_PT_, symObjAddr: 0x1D548, symBinAddr: 0x1000203E8, symSize: 0x2C }
  - { offsetInCU: 0x22F10, offset: 0x2ABC7, size: 0x8, addend: 0x0, symName: __ZNSt3__19allocatorIcE7destroyB7v160006EPc, symObjAddr: 0x1D574, symBinAddr: 0x100020414, symSize: 0x14 }
  - { offsetInCU: 0x22F42, offset: 0x2ABF9, size: 0x8, addend: 0x0, symName: __ZNSt3__19allocatorIcE10deallocateB7v160006EPcm, symObjAddr: 0x1D588, symBinAddr: 0x100020428, symSize: 0x4C }
  - { offsetInCU: 0x22F82, offset: 0x2AC39, size: 0x8, addend: 0x0, symName: __ZNSt3__16vectorIcNS_9allocatorIcEEED2B7v160006Ev, symObjAddr: 0x1D5D4, symBinAddr: 0x100020474, symSize: 0x1F8 }
  - { offsetInCU: 0x22FAB, offset: 0x2AC62, size: 0x8, addend: 0x0, symName: __ZNSt3__16vectorINS0_IcNS_9allocatorIcEEEENS1_IS3_EEEC2EmRKS3_, symObjAddr: 0x1D7CC, symBinAddr: 0x10002066C, symSize: 0x4A4 }
  - { offsetInCU: 0x23010, offset: 0x2ACC7, size: 0x8, addend: 0x0, symName: __ZNSt3__117__compressed_pairIPNS_6vectorIcNS_9allocatorIcEEEENS2_IS4_EEEC1B7v160006IDnNS_18__default_init_tagEEEOT_OT0_, symObjAddr: 0x1DC70, symBinAddr: 0x100020B10, symSize: 0x3C }
  - { offsetInCU: 0x23066, offset: 0x2AD1D, size: 0x8, addend: 0x0, symName: __ZNSt3__16vectorINS0_IcNS_9allocatorIcEEEENS1_IS3_EEE16__destroy_vectorC1ERS5_, symObjAddr: 0x1DF24, symBinAddr: 0x100020DC4, symSize: 0x34 }
  - { offsetInCU: 0x2309D, offset: 0x2AD54, size: 0x8, addend: 0x0, symName: __ZNSt3__16vectorINS0_IcNS_9allocatorIcEEEENS1_IS3_EEE11__vallocateB7v160006Em, symObjAddr: 0x1DF68, symBinAddr: 0x100020E08, symSize: 0x428 }
  - { offsetInCU: 0x230E5, offset: 0x2AD9C, size: 0x8, addend: 0x0, symName: __ZNSt3__16vectorINS0_IcNS_9allocatorIcEEEENS1_IS3_EEE18__construct_at_endEmRKS3_, symObjAddr: 0x1E390, symBinAddr: 0x100021230, symSize: 0x3EC }
  - { offsetInCU: 0x2316E, offset: 0x2AE25, size: 0x8, addend: 0x0, symName: __ZNSt3__128__exception_guard_exceptionsINS_6vectorINS1_IcNS_9allocatorIcEEEENS2_IS4_EEE16__destroy_vectorEE10__completeB7v160006Ev, symObjAddr: 0x1E77C, symBinAddr: 0x10002161C, symSize: 0x8C }
  - { offsetInCU: 0x23192, offset: 0x2AE49, size: 0x8, addend: 0x0, symName: __ZNSt3__128__exception_guard_exceptionsINS_6vectorINS1_IcNS_9allocatorIcEEEENS2_IS4_EEE16__destroy_vectorEED1B7v160006Ev, symObjAddr: 0x1E808, symBinAddr: 0x1000216A8, symSize: 0x2C }
  - { offsetInCU: 0x231BA, offset: 0x2AE71, size: 0x8, addend: 0x0, symName: __ZNSt3__117__compressed_pairIPNS_6vectorIcNS_9allocatorIcEEEENS2_IS4_EEEC2B7v160006IDnNS_18__default_init_tagEEEOT_OT0_, symObjAddr: 0x1E834, symBinAddr: 0x1000216D4, symSize: 0x40 }
  - { offsetInCU: 0x23210, offset: 0x2AEC7, size: 0x8, addend: 0x0, symName: __ZNSt3__122__compressed_pair_elemIPNS_6vectorIcNS_9allocatorIcEEEELi0ELb0EEC2B7v160006IDnvEEOT_, symObjAddr: 0x1E874, symBinAddr: 0x100021714, symSize: 0x64 }
  - { offsetInCU: 0x23251, offset: 0x2AF08, size: 0x8, addend: 0x0, symName: __ZNSt3__122__compressed_pair_elemINS_9allocatorINS_6vectorIcNS1_IcEEEEEELi1ELb1EEC2B7v160006ENS_18__default_init_tagE, symObjAddr: 0x1E8D8, symBinAddr: 0x100021778, symSize: 0x2C }
  - { offsetInCU: 0x23283, offset: 0x2AF3A, size: 0x8, addend: 0x0, symName: __ZNSt3__19allocatorINS_6vectorIcNS0_IcEEEEEC2B7v160006Ev, symObjAddr: 0x1E904, symBinAddr: 0x1000217A4, symSize: 0x2C }
  - { offsetInCU: 0x232AB, offset: 0x2AF62, size: 0x8, addend: 0x0, symName: __ZNSt3__116__non_trivial_ifILb1ENS_9allocatorINS_6vectorIcNS1_IcEEEEEEEC2B7v160006Ev, symObjAddr: 0x1E930, symBinAddr: 0x1000217D0, symSize: 0x14 }
  - { offsetInCU: 0x232D3, offset: 0x2AF8A, size: 0x8, addend: 0x0, symName: __ZNSt3__128__exception_guard_exceptionsINS_6vectorINS1_IcNS_9allocatorIcEEEENS2_IS4_EEE16__destroy_vectorEEC1B7v160006ES7_, symObjAddr: 0x1E944, symBinAddr: 0x1000217E4, symSize: 0x238 }
  - { offsetInCU: 0x2330E, offset: 0x2AFC5, size: 0x8, addend: 0x0, symName: __ZNSt3__128__exception_guard_exceptionsINS_6vectorINS1_IcNS_9allocatorIcEEEENS2_IS4_EEE16__destroy_vectorEEC2B7v160006ES7_, symObjAddr: 0x1EB7C, symBinAddr: 0x100021A1C, symSize: 0x264 }
  - { offsetInCU: 0x23349, offset: 0x2B000, size: 0x8, addend: 0x0, symName: __ZNSt3__16vectorINS0_IcNS_9allocatorIcEEEENS1_IS3_EEE16__destroy_vectorC2ERS5_, symObjAddr: 0x1EDE0, symBinAddr: 0x100021C80, symSize: 0x70 }
  - { offsetInCU: 0x23380, offset: 0x2B037, size: 0x8, addend: 0x0, symName: __ZNKSt3__16vectorINS0_IcNS_9allocatorIcEEEENS1_IS3_EEE8max_sizeEv, symObjAddr: 0x1EE50, symBinAddr: 0x100021CF0, symSize: 0x2FC }
  - { offsetInCU: 0x233A7, offset: 0x2B05E, size: 0x8, addend: 0x0, symName: __ZNKSt3__16vectorINS0_IcNS_9allocatorIcEEEENS1_IS3_EEE20__throw_length_errorB7v160006Ev, symObjAddr: 0x1F14C, symBinAddr: 0x100021FEC, symSize: 0x20 }
  - { offsetInCU: 0x233CB, offset: 0x2B082, size: 0x8, addend: 0x0, symName: __ZNSt3__16vectorINS0_IcNS_9allocatorIcEEEENS1_IS3_EEE7__allocB7v160006Ev, symObjAddr: 0x1F3F8, symBinAddr: 0x100022298, symSize: 0x28 }
  - { offsetInCU: 0x233EF, offset: 0x2B0A6, size: 0x8, addend: 0x0, symName: __ZNSt3__16vectorINS0_IcNS_9allocatorIcEEEENS1_IS3_EEE9__end_capB7v160006Ev, symObjAddr: 0x1F420, symBinAddr: 0x1000222C0, symSize: 0x28 }
  - { offsetInCU: 0x23413, offset: 0x2B0CA, size: 0x8, addend: 0x0, symName: __ZNKSt3__16vectorINS0_IcNS_9allocatorIcEEEENS1_IS3_EEE14__annotate_newB7v160006Em, symObjAddr: 0x1F448, symBinAddr: 0x1000222E8, symSize: 0xDC }
  - { offsetInCU: 0x23450, offset: 0x2B107, size: 0x8, addend: 0x0, symName: __ZNSt3__116allocator_traitsINS_9allocatorINS_6vectorIcNS1_IcEEEEEEE8max_sizeB7v160006IS5_vEEmRKS5_, symObjAddr: 0x1F524, symBinAddr: 0x1000223C4, symSize: 0x24 }
  - { offsetInCU: 0x2347E, offset: 0x2B135, size: 0x8, addend: 0x0, symName: __ZNKSt3__16vectorINS0_IcNS_9allocatorIcEEEENS1_IS3_EEE7__allocB7v160006Ev, symObjAddr: 0x1F548, symBinAddr: 0x1000223E8, symSize: 0x28 }
  - { offsetInCU: 0x234A2, offset: 0x2B159, size: 0x8, addend: 0x0, symName: __ZNKSt3__19allocatorINS_6vectorIcNS0_IcEEEEE8max_sizeB7v160006Ev, symObjAddr: 0x1F570, symBinAddr: 0x100022410, symSize: 0x18 }
  - { offsetInCU: 0x234C6, offset: 0x2B17D, size: 0x8, addend: 0x0, symName: __ZNKSt3__117__compressed_pairIPNS_6vectorIcNS_9allocatorIcEEEENS2_IS4_EEE6secondB7v160006Ev, symObjAddr: 0x1F588, symBinAddr: 0x100022428, symSize: 0x24 }
  - { offsetInCU: 0x234EA, offset: 0x2B1A1, size: 0x8, addend: 0x0, symName: __ZNKSt3__122__compressed_pair_elemINS_9allocatorINS_6vectorIcNS1_IcEEEEEELi1ELb1EE5__getB7v160006Ev, symObjAddr: 0x1F5AC, symBinAddr: 0x10002244C, symSize: 0x14 }
  - { offsetInCU: 0x2350E, offset: 0x2B1C5, size: 0x8, addend: 0x0, symName: __ZNSt3__19allocatorINS_6vectorIcNS0_IcEEEEE8allocateB7v160006Em, symObjAddr: 0x1F5C0, symBinAddr: 0x100022460, symSize: 0x60 }
  - { offsetInCU: 0x23540, offset: 0x2B1F7, size: 0x8, addend: 0x0, symName: __ZNSt3__117__compressed_pairIPNS_6vectorIcNS_9allocatorIcEEEENS2_IS4_EEE6secondB7v160006Ev, symObjAddr: 0x1F620, symBinAddr: 0x1000224C0, symSize: 0x24 }
  - { offsetInCU: 0x23564, offset: 0x2B21B, size: 0x8, addend: 0x0, symName: __ZNSt3__122__compressed_pair_elemINS_9allocatorINS_6vectorIcNS1_IcEEEEEELi1ELb1EE5__getB7v160006Ev, symObjAddr: 0x1F644, symBinAddr: 0x1000224E4, symSize: 0x14 }
  - { offsetInCU: 0x23588, offset: 0x2B23F, size: 0x8, addend: 0x0, symName: __ZNSt3__117__compressed_pairIPNS_6vectorIcNS_9allocatorIcEEEENS2_IS4_EEE5firstB7v160006Ev, symObjAddr: 0x1F658, symBinAddr: 0x1000224F8, symSize: 0x24 }
  - { offsetInCU: 0x235AC, offset: 0x2B263, size: 0x8, addend: 0x0, symName: __ZNSt3__122__compressed_pair_elemIPNS_6vectorIcNS_9allocatorIcEEEELi0ELb0EE5__getB7v160006Ev, symObjAddr: 0x1F67C, symBinAddr: 0x10002251C, symSize: 0x14 }
  - { offsetInCU: 0x235D0, offset: 0x2B287, size: 0x8, addend: 0x0, symName: __ZNKSt3__16vectorINS0_IcNS_9allocatorIcEEEENS1_IS3_EEE31__annotate_contiguous_containerEPKvS7_S7_S7_, symObjAddr: 0x1F690, symBinAddr: 0x100022530, symSize: 0x58 }
  - { offsetInCU: 0x23630, offset: 0x2B2E7, size: 0x8, addend: 0x0, symName: __ZNKSt3__16vectorINS0_IcNS_9allocatorIcEEEENS1_IS3_EEE4dataB7v160006Ev, symObjAddr: 0x1F6E8, symBinAddr: 0x100022588, symSize: 0x64 }
  - { offsetInCU: 0x23654, offset: 0x2B30B, size: 0x8, addend: 0x0, symName: __ZNKSt3__16vectorINS0_IcNS_9allocatorIcEEEENS1_IS3_EEE8capacityB7v160006Ev, symObjAddr: 0x1F74C, symBinAddr: 0x1000225EC, symSize: 0xBC }
  - { offsetInCU: 0x23678, offset: 0x2B32F, size: 0x8, addend: 0x0, symName: __ZNKSt3__16vectorINS0_IcNS_9allocatorIcEEEENS1_IS3_EEE9__end_capB7v160006Ev, symObjAddr: 0x1F81C, symBinAddr: 0x1000226BC, symSize: 0x28 }
  - { offsetInCU: 0x2369C, offset: 0x2B353, size: 0x8, addend: 0x0, symName: __ZNKSt3__117__compressed_pairIPNS_6vectorIcNS_9allocatorIcEEEENS2_IS4_EEE5firstB7v160006Ev, symObjAddr: 0x1F844, symBinAddr: 0x1000226E4, symSize: 0x24 }
  - { offsetInCU: 0x236C0, offset: 0x2B377, size: 0x8, addend: 0x0, symName: __ZNKSt3__122__compressed_pair_elemIPNS_6vectorIcNS_9allocatorIcEEEELi0ELb0EE5__getB7v160006Ev, symObjAddr: 0x1F868, symBinAddr: 0x100022708, symSize: 0x14 }
  - { offsetInCU: 0x236FD, offset: 0x2B3B4, size: 0x8, addend: 0x0, symName: __ZNSt3__16vectorINS0_IcNS_9allocatorIcEEEENS1_IS3_EEE21_ConstructTransactionC1B7v160006ERS5_m, symObjAddr: 0x1F87C, symBinAddr: 0x10002271C, symSize: 0x3C }
  - { offsetInCU: 0x23743, offset: 0x2B3FA, size: 0x8, addend: 0x0, symName: __ZNSt3__116allocator_traitsINS_9allocatorINS_6vectorIcNS1_IcEEEEEEE9constructB7v160006IS4_JRKS4_EvEEvRS5_PT_DpOT0_, symObjAddr: 0x1F8B8, symBinAddr: 0x100022758, symSize: 0x34 }
  - { offsetInCU: 0x2379B, offset: 0x2B452, size: 0x8, addend: 0x0, symName: __ZNSt3__16vectorINS0_IcNS_9allocatorIcEEEENS1_IS3_EEE21_ConstructTransactionD1B7v160006Ev, symObjAddr: 0x1F8EC, symBinAddr: 0x10002278C, symSize: 0x2C }
  - { offsetInCU: 0x237C3, offset: 0x2B47A, size: 0x8, addend: 0x0, symName: __ZNSt3__16vectorINS0_IcNS_9allocatorIcEEEENS1_IS3_EEE21_ConstructTransactionC2B7v160006ERS5_m, symObjAddr: 0x1F918, symBinAddr: 0x1000227B8, symSize: 0x1D8 }
  - { offsetInCU: 0x23809, offset: 0x2B4C0, size: 0x8, addend: 0x0, symName: __ZNKSt3__16vectorINS0_IcNS_9allocatorIcEEEENS1_IS3_EEE19__annotate_increaseB7v160006Em, symObjAddr: 0x1FAF0, symBinAddr: 0x100022990, symSize: 0xF8 }
  - { offsetInCU: 0x2383C, offset: 0x2B4F3, size: 0x8, addend: 0x0, symName: __ZNKSt3__16vectorINS0_IcNS_9allocatorIcEEEENS1_IS3_EEE4sizeB7v160006Ev, symObjAddr: 0x1FBE8, symBinAddr: 0x100022A88, symSize: 0xB0 }
  - { offsetInCU: 0x23860, offset: 0x2B517, size: 0x8, addend: 0x0, symName: __ZNSt3__19allocatorINS_6vectorIcNS0_IcEEEEE9constructB7v160006IS3_JRKS3_EEEvPT_DpOT0_, symObjAddr: 0x1FC98, symBinAddr: 0x100022B38, symSize: 0x30 }
  - { offsetInCU: 0x238B5, offset: 0x2B56C, size: 0x8, addend: 0x0, symName: __ZNSt3__16vectorIcNS_9allocatorIcEEEC1ERKS3_, symObjAddr: 0x1FCC8, symBinAddr: 0x100022B68, symSize: 0x34 }
  - { offsetInCU: 0x238EF, offset: 0x2B5A6, size: 0x8, addend: 0x0, symName: __ZNSt3__16vectorIcNS_9allocatorIcEEEC2ERKS3_, symObjAddr: 0x1FCFC, symBinAddr: 0x100022B9C, symSize: 0x538 }
  - { offsetInCU: 0x23954, offset: 0x2B60B, size: 0x8, addend: 0x0, symName: __ZNSt3__116allocator_traitsINS_9allocatorIcEEE37select_on_container_copy_constructionB7v160006IS2_vvEES2_RKS2_, symObjAddr: 0x20234, symBinAddr: 0x1000230D4, symSize: 0x10 }
  - { offsetInCU: 0x23989, offset: 0x2B640, size: 0x8, addend: 0x0, symName: __ZNSt3__117__compressed_pairIPcNS_9allocatorIcEEEC1B7v160006IDnS3_EEOT_OT0_, symObjAddr: 0x20244, symBinAddr: 0x1000230E4, symSize: 0x3C }
  - { offsetInCU: 0x239DF, offset: 0x2B696, size: 0x8, addend: 0x0, symName: __ZNSt3__16vectorIcNS_9allocatorIcEEE18__construct_at_endIPcLi0EEEvT_S6_m, symObjAddr: 0x20280, symBinAddr: 0x100023120, symSize: 0x380 }
  - { offsetInCU: 0x23A59, offset: 0x2B710, size: 0x8, addend: 0x0, symName: __ZNSt3__117__compressed_pairIPcNS_9allocatorIcEEEC2B7v160006IDnS3_EEOT_OT0_, symObjAddr: 0x20600, symBinAddr: 0x1000234A0, symSize: 0x44 }
  - { offsetInCU: 0x23AAF, offset: 0x2B766, size: 0x8, addend: 0x0, symName: __ZNSt3__122__compressed_pair_elemINS_9allocatorIcEELi1ELb1EEC2B7v160006IS2_vEEOT_, symObjAddr: 0x20644, symBinAddr: 0x1000234E4, symSize: 0x18 }
  - { offsetInCU: 0x23AF0, offset: 0x2B7A7, size: 0x8, addend: 0x0, symName: __ZNSt3__129_AllocatorDestroyRangeReverseINS_9allocatorIcEEPcEC1B7v160006ERS2_RS3_S6_, symObjAddr: 0x20D74, symBinAddr: 0x100023C14, symSize: 0x44 }
  - { offsetInCU: 0x23B45, offset: 0x2B7FC, size: 0x8, addend: 0x0, symName: __ZNSt3__116allocator_traitsINS_9allocatorIcEEE9constructB7v160006IcJRcEvEEvRS2_PT_DpOT0_, symObjAddr: 0x20DB8, symBinAddr: 0x100023C58, symSize: 0x34 }
  - { offsetInCU: 0x23B9D, offset: 0x2B854, size: 0x8, addend: 0x0, symName: __ZNSt3__128__exception_guard_exceptionsINS_29_AllocatorDestroyRangeReverseINS_9allocatorIcEEPcEEE10__completeB7v160006Ev, symObjAddr: 0x20DEC, symBinAddr: 0x100023C8C, symSize: 0x8C }
  - { offsetInCU: 0x23BC1, offset: 0x2B878, size: 0x8, addend: 0x0, symName: __ZNSt3__128__exception_guard_exceptionsINS_29_AllocatorDestroyRangeReverseINS_9allocatorIcEEPcEEED1B7v160006Ev, symObjAddr: 0x20E78, symBinAddr: 0x100023D18, symSize: 0x2C }
  - { offsetInCU: 0x23BE9, offset: 0x2B8A0, size: 0x8, addend: 0x0, symName: __ZNSt3__128__exception_guard_exceptionsINS_29_AllocatorDestroyRangeReverseINS_9allocatorIcEEPcEEEC1B7v160006ES5_, symObjAddr: 0x20EA4, symBinAddr: 0x100023D44, symSize: 0x34 }
  - { offsetInCU: 0x23C20, offset: 0x2B8D7, size: 0x8, addend: 0x0, symName: __ZNSt3__128__exception_guard_exceptionsINS_29_AllocatorDestroyRangeReverseINS_9allocatorIcEEPcEEEC2B7v160006ES5_, symObjAddr: 0x20ED8, symBinAddr: 0x100023D78, symSize: 0xA4 }
  - { offsetInCU: 0x23C57, offset: 0x2B90E, size: 0x8, addend: 0x0, symName: __ZNSt3__129_AllocatorDestroyRangeReverseINS_9allocatorIcEEPcEC2B7v160006ERS2_RS3_S6_, symObjAddr: 0x20F7C, symBinAddr: 0x100023E1C, symSize: 0x104 }
  - { offsetInCU: 0x23CAC, offset: 0x2B963, size: 0x8, addend: 0x0, symName: __ZNSt3__19allocatorIcE9constructB7v160006IcJRcEEEvPT_DpOT0_, symObjAddr: 0x21080, symBinAddr: 0x100023F20, symSize: 0xFC }
  - { offsetInCU: 0x23D01, offset: 0x2B9B8, size: 0x8, addend: 0x0, symName: __ZNSt3__128__exception_guard_exceptionsINS_29_AllocatorDestroyRangeReverseINS_9allocatorIcEEPcEEED2B7v160006Ev, symObjAddr: 0x2117C, symBinAddr: 0x10002401C, symSize: 0xBC }
  - { offsetInCU: 0x23D29, offset: 0x2B9E0, size: 0x8, addend: 0x0, symName: __ZNKSt3__129_AllocatorDestroyRangeReverseINS_9allocatorIcEEPcEclB7v160006Ev, symObjAddr: 0x21238, symBinAddr: 0x1000240D8, symSize: 0x39C }
  - { offsetInCU: 0x23D4E, offset: 0x2BA05, size: 0x8, addend: 0x0, symName: __ZNSt3__116reverse_iteratorIPcEC1B7v160006ES1_, symObjAddr: 0x2188C, symBinAddr: 0x10002472C, symSize: 0x34 }
  - { offsetInCU: 0x23D84, offset: 0x2BA3B, size: 0x8, addend: 0x0, symName: __ZNSt3__116reverse_iteratorIPcEppB7v160006Ev, symObjAddr: 0x2192C, symBinAddr: 0x1000247CC, symSize: 0x6C }
  - { offsetInCU: 0x23DA8, offset: 0x2BA5F, size: 0x8, addend: 0x0, symName: __ZNKSt3__116reverse_iteratorIPcE4baseB7v160006Ev, symObjAddr: 0x21998, symBinAddr: 0x100024838, symSize: 0x64 }
  - { offsetInCU: 0x23DD1, offset: 0x2BA88, size: 0x8, addend: 0x0, symName: __ZNSt3__119__to_address_helperINS_16reverse_iteratorIPcEEvE6__callB7v160006ERKS3_, symObjAddr: 0x219FC, symBinAddr: 0x10002489C, symSize: 0x44 }
  - { offsetInCU: 0x23DF3, offset: 0x2BAAA, size: 0x8, addend: 0x0, symName: __ZNKSt3__116reverse_iteratorIPcEptB7v160006Ev, symObjAddr: 0x21A40, symBinAddr: 0x1000248E0, symSize: 0x24 }
  - { offsetInCU: 0x23E17, offset: 0x2BACE, size: 0x8, addend: 0x0, symName: __ZNKSt3__116reverse_iteratorIPcEdeB7v160006Ev, symObjAddr: 0x21A64, symBinAddr: 0x100024904, symSize: 0x74 }
  - { offsetInCU: 0x23E4A, offset: 0x2BB01, size: 0x8, addend: 0x0, symName: __ZNSt3__116reverse_iteratorIPcEC2B7v160006ES1_, symObjAddr: 0x21AD8, symBinAddr: 0x100024978, symSize: 0xB8 }
  - { offsetInCU: 0x23E80, offset: 0x2BB37, size: 0x8, addend: 0x0, symName: __ZNSt3__16vectorINS0_IcNS_9allocatorIcEEEENS1_IS3_EEE21_ConstructTransactionD2B7v160006Ev, symObjAddr: 0x21B90, symBinAddr: 0x100024A30, symSize: 0x278 }
  - { offsetInCU: 0x23EA8, offset: 0x2BB5F, size: 0x8, addend: 0x0, symName: __ZNKSt3__16vectorINS0_IcNS_9allocatorIcEEEENS1_IS3_EEE17__annotate_shrinkB7v160006Em, symObjAddr: 0x21E08, symBinAddr: 0x100024CA8, symSize: 0xE4 }
  - { offsetInCU: 0x23EDB, offset: 0x2BB92, size: 0x8, addend: 0x0, symName: __ZNSt3__128__exception_guard_exceptionsINS_6vectorINS1_IcNS_9allocatorIcEEEENS2_IS4_EEE16__destroy_vectorEED2B7v160006Ev, symObjAddr: 0x21EEC, symBinAddr: 0x100024D8C, symSize: 0xBC }
  - { offsetInCU: 0x23F03, offset: 0x2BBBA, size: 0x8, addend: 0x0, symName: __ZNSt3__16vectorINS0_IcNS_9allocatorIcEEEENS1_IS3_EEE16__destroy_vectorclB7v160006Ev, symObjAddr: 0x21FA8, symBinAddr: 0x100024E48, symSize: 0x264 }
  - { offsetInCU: 0x23F27, offset: 0x2BBDE, size: 0x8, addend: 0x0, symName: __ZNKSt3__16vectorINS0_IcNS_9allocatorIcEEEENS1_IS3_EEE17__annotate_deleteB7v160006Ev, symObjAddr: 0x2220C, symBinAddr: 0x1000250AC, symSize: 0xE8 }
  - { offsetInCU: 0x23F4B, offset: 0x2BC02, size: 0x8, addend: 0x0, symName: __ZNSt3__16vectorINS0_IcNS_9allocatorIcEEEENS1_IS3_EEE7__clearB7v160006Ev, symObjAddr: 0x22304, symBinAddr: 0x1000251A4, symSize: 0x64 }
  - { offsetInCU: 0x23F6F, offset: 0x2BC26, size: 0x8, addend: 0x0, symName: __ZNSt3__116allocator_traitsINS_9allocatorINS_6vectorIcNS1_IcEEEEEEE10deallocateB7v160006ERS5_PS4_m, symObjAddr: 0x22368, symBinAddr: 0x100025208, symSize: 0x34 }
  - { offsetInCU: 0x23FB0, offset: 0x2BC67, size: 0x8, addend: 0x0, symName: __ZNSt3__16vectorINS0_IcNS_9allocatorIcEEEENS1_IS3_EEE22__base_destruct_at_endB7v160006EPS3_, symObjAddr: 0x2239C, symBinAddr: 0x10002523C, symSize: 0x114 }
  - { offsetInCU: 0x23FF2, offset: 0x2BCA9, size: 0x8, addend: 0x0, symName: __ZNSt3__116allocator_traitsINS_9allocatorINS_6vectorIcNS1_IcEEEEEEE7destroyB7v160006IS4_vEEvRS5_PT_, symObjAddr: 0x224B0, symBinAddr: 0x100025350, symSize: 0x2C }
  - { offsetInCU: 0x2402F, offset: 0x2BCE6, size: 0x8, addend: 0x0, symName: __ZNSt3__19allocatorINS_6vectorIcNS0_IcEEEEE7destroyB7v160006EPS3_, symObjAddr: 0x224DC, symBinAddr: 0x10002537C, symSize: 0x28 }
  - { offsetInCU: 0x24061, offset: 0x2BD18, size: 0x8, addend: 0x0, symName: __ZNSt3__19allocatorINS_6vectorIcNS0_IcEEEEE10deallocateB7v160006EPS3_m, symObjAddr: 0x22504, symBinAddr: 0x1000253A4, symSize: 0x50 }
  - { offsetInCU: 0x240A1, offset: 0x2BD58, size: 0x8, addend: 0x0, symName: __ZNSt3__16vectorINS0_IcNS_9allocatorIcEEEENS1_IS3_EEED2B7v160006Ev, symObjAddr: 0x22554, symBinAddr: 0x1000253F4, symSize: 0x1F8 }
  - { offsetInCU: 0x240CA, offset: 0x2BD81, size: 0x8, addend: 0x0, symName: __ZNSt3__16vectorIiNS_9allocatorIiEEEC2B7v160006Ev, symObjAddr: 0x2274C, symBinAddr: 0x1000255EC, symSize: 0x2F0 }
  - { offsetInCU: 0x240F3, offset: 0x2BDAA, size: 0x8, addend: 0x0, symName: __ZNSt3__16vectorINS0_IiNS_9allocatorIiEEEENS1_IS3_EEEC2EmRKS3_, symObjAddr: 0x22A3C, symBinAddr: 0x1000258DC, symSize: 0x4A4 }
  - { offsetInCU: 0x24158, offset: 0x2BE0F, size: 0x8, addend: 0x0, symName: __ZNSt3__117__compressed_pairIPNS_6vectorIiNS_9allocatorIiEEEENS2_IS4_EEEC1B7v160006IDnNS_18__default_init_tagEEEOT_OT0_, symObjAddr: 0x22EE0, symBinAddr: 0x100025D80, symSize: 0x3C }
  - { offsetInCU: 0x241AE, offset: 0x2BE65, size: 0x8, addend: 0x0, symName: __ZNSt3__16vectorINS0_IiNS_9allocatorIiEEEENS1_IS3_EEE16__destroy_vectorC1ERS5_, symObjAddr: 0x23194, symBinAddr: 0x100026034, symSize: 0x34 }
  - { offsetInCU: 0x241E5, offset: 0x2BE9C, size: 0x8, addend: 0x0, symName: __ZNSt3__16vectorINS0_IiNS_9allocatorIiEEEENS1_IS3_EEE11__vallocateB7v160006Em, symObjAddr: 0x231D8, symBinAddr: 0x100026078, symSize: 0x428 }
  - { offsetInCU: 0x2422D, offset: 0x2BEE4, size: 0x8, addend: 0x0, symName: __ZNSt3__16vectorINS0_IiNS_9allocatorIiEEEENS1_IS3_EEE18__construct_at_endEmRKS3_, symObjAddr: 0x23600, symBinAddr: 0x1000264A0, symSize: 0x3EC }
  - { offsetInCU: 0x242B6, offset: 0x2BF6D, size: 0x8, addend: 0x0, symName: __ZNSt3__128__exception_guard_exceptionsINS_6vectorINS1_IiNS_9allocatorIiEEEENS2_IS4_EEE16__destroy_vectorEE10__completeB7v160006Ev, symObjAddr: 0x239EC, symBinAddr: 0x10002688C, symSize: 0x8C }
  - { offsetInCU: 0x242DA, offset: 0x2BF91, size: 0x8, addend: 0x0, symName: __ZNSt3__128__exception_guard_exceptionsINS_6vectorINS1_IiNS_9allocatorIiEEEENS2_IS4_EEE16__destroy_vectorEED1B7v160006Ev, symObjAddr: 0x23A78, symBinAddr: 0x100026918, symSize: 0x2C }
  - { offsetInCU: 0x24302, offset: 0x2BFB9, size: 0x8, addend: 0x0, symName: __ZNSt3__117__compressed_pairIPNS_6vectorIiNS_9allocatorIiEEEENS2_IS4_EEEC2B7v160006IDnNS_18__default_init_tagEEEOT_OT0_, symObjAddr: 0x23AA4, symBinAddr: 0x100026944, symSize: 0x40 }
  - { offsetInCU: 0x24358, offset: 0x2C00F, size: 0x8, addend: 0x0, symName: __ZNSt3__122__compressed_pair_elemIPNS_6vectorIiNS_9allocatorIiEEEELi0ELb0EEC2B7v160006IDnvEEOT_, symObjAddr: 0x23AE4, symBinAddr: 0x100026984, symSize: 0x64 }
  - { offsetInCU: 0x24399, offset: 0x2C050, size: 0x8, addend: 0x0, symName: __ZNSt3__122__compressed_pair_elemINS_9allocatorINS_6vectorIiNS1_IiEEEEEELi1ELb1EEC2B7v160006ENS_18__default_init_tagE, symObjAddr: 0x23B48, symBinAddr: 0x1000269E8, symSize: 0x2C }
  - { offsetInCU: 0x243CB, offset: 0x2C082, size: 0x8, addend: 0x0, symName: __ZNSt3__19allocatorINS_6vectorIiNS0_IiEEEEEC2B7v160006Ev, symObjAddr: 0x23B74, symBinAddr: 0x100026A14, symSize: 0x2C }
  - { offsetInCU: 0x243F3, offset: 0x2C0AA, size: 0x8, addend: 0x0, symName: __ZNSt3__116__non_trivial_ifILb1ENS_9allocatorINS_6vectorIiNS1_IiEEEEEEEC2B7v160006Ev, symObjAddr: 0x23BA0, symBinAddr: 0x100026A40, symSize: 0x14 }
  - { offsetInCU: 0x2441B, offset: 0x2C0D2, size: 0x8, addend: 0x0, symName: __ZNSt3__128__exception_guard_exceptionsINS_6vectorINS1_IiNS_9allocatorIiEEEENS2_IS4_EEE16__destroy_vectorEEC1B7v160006ES7_, symObjAddr: 0x23BB4, symBinAddr: 0x100026A54, symSize: 0x238 }
  - { offsetInCU: 0x24456, offset: 0x2C10D, size: 0x8, addend: 0x0, symName: __ZNSt3__128__exception_guard_exceptionsINS_6vectorINS1_IiNS_9allocatorIiEEEENS2_IS4_EEE16__destroy_vectorEEC2B7v160006ES7_, symObjAddr: 0x23DEC, symBinAddr: 0x100026C8C, symSize: 0x264 }
  - { offsetInCU: 0x24491, offset: 0x2C148, size: 0x8, addend: 0x0, symName: __ZNSt3__16vectorINS0_IiNS_9allocatorIiEEEENS1_IS3_EEE16__destroy_vectorC2ERS5_, symObjAddr: 0x24050, symBinAddr: 0x100026EF0, symSize: 0x70 }
  - { offsetInCU: 0x244C8, offset: 0x2C17F, size: 0x8, addend: 0x0, symName: __ZNKSt3__16vectorINS0_IiNS_9allocatorIiEEEENS1_IS3_EEE8max_sizeEv, symObjAddr: 0x240C0, symBinAddr: 0x100026F60, symSize: 0x2FC }
  - { offsetInCU: 0x244EF, offset: 0x2C1A6, size: 0x8, addend: 0x0, symName: __ZNKSt3__16vectorINS0_IiNS_9allocatorIiEEEENS1_IS3_EEE20__throw_length_errorB7v160006Ev, symObjAddr: 0x243BC, symBinAddr: 0x10002725C, symSize: 0x20 }
  - { offsetInCU: 0x24513, offset: 0x2C1CA, size: 0x8, addend: 0x0, symName: __ZNSt3__16vectorINS0_IiNS_9allocatorIiEEEENS1_IS3_EEE7__allocB7v160006Ev, symObjAddr: 0x24668, symBinAddr: 0x100027508, symSize: 0x28 }
  - { offsetInCU: 0x24537, offset: 0x2C1EE, size: 0x8, addend: 0x0, symName: __ZNSt3__16vectorINS0_IiNS_9allocatorIiEEEENS1_IS3_EEE9__end_capB7v160006Ev, symObjAddr: 0x24690, symBinAddr: 0x100027530, symSize: 0x28 }
  - { offsetInCU: 0x2455B, offset: 0x2C212, size: 0x8, addend: 0x0, symName: __ZNKSt3__16vectorINS0_IiNS_9allocatorIiEEEENS1_IS3_EEE14__annotate_newB7v160006Em, symObjAddr: 0x246B8, symBinAddr: 0x100027558, symSize: 0xDC }
  - { offsetInCU: 0x24598, offset: 0x2C24F, size: 0x8, addend: 0x0, symName: __ZNSt3__116allocator_traitsINS_9allocatorINS_6vectorIiNS1_IiEEEEEEE8max_sizeB7v160006IS5_vEEmRKS5_, symObjAddr: 0x24794, symBinAddr: 0x100027634, symSize: 0x24 }
  - { offsetInCU: 0x245C6, offset: 0x2C27D, size: 0x8, addend: 0x0, symName: __ZNKSt3__16vectorINS0_IiNS_9allocatorIiEEEENS1_IS3_EEE7__allocB7v160006Ev, symObjAddr: 0x247B8, symBinAddr: 0x100027658, symSize: 0x28 }
  - { offsetInCU: 0x245EA, offset: 0x2C2A1, size: 0x8, addend: 0x0, symName: __ZNKSt3__19allocatorINS_6vectorIiNS0_IiEEEEE8max_sizeB7v160006Ev, symObjAddr: 0x247E0, symBinAddr: 0x100027680, symSize: 0x18 }
  - { offsetInCU: 0x2460E, offset: 0x2C2C5, size: 0x8, addend: 0x0, symName: __ZNKSt3__117__compressed_pairIPNS_6vectorIiNS_9allocatorIiEEEENS2_IS4_EEE6secondB7v160006Ev, symObjAddr: 0x247F8, symBinAddr: 0x100027698, symSize: 0x24 }
  - { offsetInCU: 0x24632, offset: 0x2C2E9, size: 0x8, addend: 0x0, symName: __ZNKSt3__122__compressed_pair_elemINS_9allocatorINS_6vectorIiNS1_IiEEEEEELi1ELb1EE5__getB7v160006Ev, symObjAddr: 0x2481C, symBinAddr: 0x1000276BC, symSize: 0x14 }
  - { offsetInCU: 0x24656, offset: 0x2C30D, size: 0x8, addend: 0x0, symName: __ZNSt3__19allocatorINS_6vectorIiNS0_IiEEEEE8allocateB7v160006Em, symObjAddr: 0x24830, symBinAddr: 0x1000276D0, symSize: 0x60 }
  - { offsetInCU: 0x24688, offset: 0x2C33F, size: 0x8, addend: 0x0, symName: __ZNSt3__117__compressed_pairIPNS_6vectorIiNS_9allocatorIiEEEENS2_IS4_EEE6secondB7v160006Ev, symObjAddr: 0x24890, symBinAddr: 0x100027730, symSize: 0x24 }
  - { offsetInCU: 0x246AC, offset: 0x2C363, size: 0x8, addend: 0x0, symName: __ZNSt3__122__compressed_pair_elemINS_9allocatorINS_6vectorIiNS1_IiEEEEEELi1ELb1EE5__getB7v160006Ev, symObjAddr: 0x248B4, symBinAddr: 0x100027754, symSize: 0x14 }
  - { offsetInCU: 0x246D0, offset: 0x2C387, size: 0x8, addend: 0x0, symName: __ZNSt3__117__compressed_pairIPNS_6vectorIiNS_9allocatorIiEEEENS2_IS4_EEE5firstB7v160006Ev, symObjAddr: 0x248C8, symBinAddr: 0x100027768, symSize: 0x24 }
  - { offsetInCU: 0x246F4, offset: 0x2C3AB, size: 0x8, addend: 0x0, symName: __ZNSt3__122__compressed_pair_elemIPNS_6vectorIiNS_9allocatorIiEEEELi0ELb0EE5__getB7v160006Ev, symObjAddr: 0x248EC, symBinAddr: 0x10002778C, symSize: 0x14 }
  - { offsetInCU: 0x24718, offset: 0x2C3CF, size: 0x8, addend: 0x0, symName: __ZNKSt3__16vectorINS0_IiNS_9allocatorIiEEEENS1_IS3_EEE31__annotate_contiguous_containerEPKvS7_S7_S7_, symObjAddr: 0x24900, symBinAddr: 0x1000277A0, symSize: 0x58 }
  - { offsetInCU: 0x24778, offset: 0x2C42F, size: 0x8, addend: 0x0, symName: __ZNKSt3__16vectorINS0_IiNS_9allocatorIiEEEENS1_IS3_EEE4dataB7v160006Ev, symObjAddr: 0x24958, symBinAddr: 0x1000277F8, symSize: 0x64 }
  - { offsetInCU: 0x2479C, offset: 0x2C453, size: 0x8, addend: 0x0, symName: __ZNKSt3__16vectorINS0_IiNS_9allocatorIiEEEENS1_IS3_EEE8capacityB7v160006Ev, symObjAddr: 0x249BC, symBinAddr: 0x10002785C, symSize: 0xBC }
  - { offsetInCU: 0x247C0, offset: 0x2C477, size: 0x8, addend: 0x0, symName: __ZNKSt3__16vectorINS0_IiNS_9allocatorIiEEEENS1_IS3_EEE9__end_capB7v160006Ev, symObjAddr: 0x24A8C, symBinAddr: 0x10002792C, symSize: 0x28 }
  - { offsetInCU: 0x247E4, offset: 0x2C49B, size: 0x8, addend: 0x0, symName: __ZNKSt3__117__compressed_pairIPNS_6vectorIiNS_9allocatorIiEEEENS2_IS4_EEE5firstB7v160006Ev, symObjAddr: 0x24AB4, symBinAddr: 0x100027954, symSize: 0x24 }
  - { offsetInCU: 0x24808, offset: 0x2C4BF, size: 0x8, addend: 0x0, symName: __ZNKSt3__122__compressed_pair_elemIPNS_6vectorIiNS_9allocatorIiEEEELi0ELb0EE5__getB7v160006Ev, symObjAddr: 0x24AD8, symBinAddr: 0x100027978, symSize: 0x14 }
  - { offsetInCU: 0x24845, offset: 0x2C4FC, size: 0x8, addend: 0x0, symName: __ZNSt3__16vectorINS0_IiNS_9allocatorIiEEEENS1_IS3_EEE21_ConstructTransactionC1B7v160006ERS5_m, symObjAddr: 0x24AEC, symBinAddr: 0x10002798C, symSize: 0x3C }
  - { offsetInCU: 0x2488B, offset: 0x2C542, size: 0x8, addend: 0x0, symName: __ZNSt3__116allocator_traitsINS_9allocatorINS_6vectorIiNS1_IiEEEEEEE9constructB7v160006IS4_JRKS4_EvEEvRS5_PT_DpOT0_, symObjAddr: 0x24B28, symBinAddr: 0x1000279C8, symSize: 0x34 }
  - { offsetInCU: 0x248E3, offset: 0x2C59A, size: 0x8, addend: 0x0, symName: __ZNSt3__16vectorINS0_IiNS_9allocatorIiEEEENS1_IS3_EEE21_ConstructTransactionD1B7v160006Ev, symObjAddr: 0x24B5C, symBinAddr: 0x1000279FC, symSize: 0x2C }
  - { offsetInCU: 0x2490B, offset: 0x2C5C2, size: 0x8, addend: 0x0, symName: __ZNSt3__16vectorINS0_IiNS_9allocatorIiEEEENS1_IS3_EEE21_ConstructTransactionC2B7v160006ERS5_m, symObjAddr: 0x24B88, symBinAddr: 0x100027A28, symSize: 0x1D8 }
  - { offsetInCU: 0x24951, offset: 0x2C608, size: 0x8, addend: 0x0, symName: __ZNKSt3__16vectorINS0_IiNS_9allocatorIiEEEENS1_IS3_EEE19__annotate_increaseB7v160006Em, symObjAddr: 0x24D60, symBinAddr: 0x100027C00, symSize: 0xF8 }
  - { offsetInCU: 0x24984, offset: 0x2C63B, size: 0x8, addend: 0x0, symName: __ZNSt3__19allocatorINS_6vectorIiNS0_IiEEEEE9constructB7v160006IS3_JRKS3_EEEvPT_DpOT0_, symObjAddr: 0x24E58, symBinAddr: 0x100027CF8, symSize: 0x30 }
  - { offsetInCU: 0x249D9, offset: 0x2C690, size: 0x8, addend: 0x0, symName: __ZNSt3__16vectorIiNS_9allocatorIiEEEC1ERKS3_, symObjAddr: 0x24E88, symBinAddr: 0x100027D28, symSize: 0x34 }
  - { offsetInCU: 0x24A13, offset: 0x2C6CA, size: 0x8, addend: 0x0, symName: __ZNSt3__16vectorIiNS_9allocatorIiEEEC2ERKS3_, symObjAddr: 0x24EBC, symBinAddr: 0x100027D5C, symSize: 0x538 }
  - { offsetInCU: 0x24A78, offset: 0x2C72F, size: 0x8, addend: 0x0, symName: __ZNSt3__116allocator_traitsINS_9allocatorIiEEE37select_on_container_copy_constructionB7v160006IS2_vvEES2_RKS2_, symObjAddr: 0x253F4, symBinAddr: 0x100028294, symSize: 0x10 }
  - { offsetInCU: 0x24AAD, offset: 0x2C764, size: 0x8, addend: 0x0, symName: __ZNSt3__117__compressed_pairIPiNS_9allocatorIiEEEC1B7v160006IDnS3_EEOT_OT0_, symObjAddr: 0x25404, symBinAddr: 0x1000282A4, symSize: 0x3C }
  - { offsetInCU: 0x24B03, offset: 0x2C7BA, size: 0x8, addend: 0x0, symName: __ZNSt3__16vectorIiNS_9allocatorIiEEE18__construct_at_endIPiLi0EEEvT_S6_m, symObjAddr: 0x25440, symBinAddr: 0x1000282E0, symSize: 0x380 }
  - { offsetInCU: 0x24B7D, offset: 0x2C834, size: 0x8, addend: 0x0, symName: __ZNSt3__117__compressed_pairIPiNS_9allocatorIiEEEC2B7v160006IDnS3_EEOT_OT0_, symObjAddr: 0x257C0, symBinAddr: 0x100028660, symSize: 0x44 }
  - { offsetInCU: 0x24BD3, offset: 0x2C88A, size: 0x8, addend: 0x0, symName: __ZNSt3__122__compressed_pair_elemINS_9allocatorIiEELi1ELb1EEC2B7v160006IS2_vEEOT_, symObjAddr: 0x25804, symBinAddr: 0x1000286A4, symSize: 0x18 }
  - { offsetInCU: 0x24C14, offset: 0x2C8CB, size: 0x8, addend: 0x0, symName: __ZNSt3__129_AllocatorDestroyRangeReverseINS_9allocatorIiEEPiEC1B7v160006ERS2_RS3_S6_, symObjAddr: 0x25F34, symBinAddr: 0x100028DD4, symSize: 0x44 }
  - { offsetInCU: 0x24C69, offset: 0x2C920, size: 0x8, addend: 0x0, symName: __ZNSt3__116allocator_traitsINS_9allocatorIiEEE9constructB7v160006IiJRiEvEEvRS2_PT_DpOT0_, symObjAddr: 0x25F78, symBinAddr: 0x100028E18, symSize: 0x34 }
  - { offsetInCU: 0x24CC1, offset: 0x2C978, size: 0x8, addend: 0x0, symName: __ZNSt3__128__exception_guard_exceptionsINS_29_AllocatorDestroyRangeReverseINS_9allocatorIiEEPiEEE10__completeB7v160006Ev, symObjAddr: 0x25FAC, symBinAddr: 0x100028E4C, symSize: 0x8C }
  - { offsetInCU: 0x24CE5, offset: 0x2C99C, size: 0x8, addend: 0x0, symName: __ZNSt3__128__exception_guard_exceptionsINS_29_AllocatorDestroyRangeReverseINS_9allocatorIiEEPiEEED1B7v160006Ev, symObjAddr: 0x26038, symBinAddr: 0x100028ED8, symSize: 0x2C }
  - { offsetInCU: 0x24D0D, offset: 0x2C9C4, size: 0x8, addend: 0x0, symName: __ZNSt3__128__exception_guard_exceptionsINS_29_AllocatorDestroyRangeReverseINS_9allocatorIiEEPiEEEC1B7v160006ES5_, symObjAddr: 0x26064, symBinAddr: 0x100028F04, symSize: 0x34 }
  - { offsetInCU: 0x24D44, offset: 0x2C9FB, size: 0x8, addend: 0x0, symName: __ZNSt3__128__exception_guard_exceptionsINS_29_AllocatorDestroyRangeReverseINS_9allocatorIiEEPiEEEC2B7v160006ES5_, symObjAddr: 0x26098, symBinAddr: 0x100028F38, symSize: 0xA4 }
  - { offsetInCU: 0x24D7B, offset: 0x2CA32, size: 0x8, addend: 0x0, symName: __ZNSt3__129_AllocatorDestroyRangeReverseINS_9allocatorIiEEPiEC2B7v160006ERS2_RS3_S6_, symObjAddr: 0x2613C, symBinAddr: 0x100028FDC, symSize: 0x104 }
  - { offsetInCU: 0x24DD0, offset: 0x2CA87, size: 0x8, addend: 0x0, symName: __ZNSt3__19allocatorIiE9constructB7v160006IiJRiEEEvPT_DpOT0_, symObjAddr: 0x26240, symBinAddr: 0x1000290E0, symSize: 0x104 }
  - { offsetInCU: 0x24E25, offset: 0x2CADC, size: 0x8, addend: 0x0, symName: __ZNSt3__128__exception_guard_exceptionsINS_29_AllocatorDestroyRangeReverseINS_9allocatorIiEEPiEEED2B7v160006Ev, symObjAddr: 0x26344, symBinAddr: 0x1000291E4, symSize: 0xBC }
  - { offsetInCU: 0x24E4D, offset: 0x2CB04, size: 0x8, addend: 0x0, symName: __ZNKSt3__129_AllocatorDestroyRangeReverseINS_9allocatorIiEEPiEclB7v160006Ev, symObjAddr: 0x26400, symBinAddr: 0x1000292A0, symSize: 0x39C }
  - { offsetInCU: 0x24E72, offset: 0x2CB29, size: 0x8, addend: 0x0, symName: __ZNSt3__116reverse_iteratorIPiEC1B7v160006ES1_, symObjAddr: 0x26A54, symBinAddr: 0x1000298F4, symSize: 0x34 }
  - { offsetInCU: 0x24EA8, offset: 0x2CB5F, size: 0x8, addend: 0x0, symName: __ZNSt3__116reverse_iteratorIPiEppB7v160006Ev, symObjAddr: 0x26AF4, symBinAddr: 0x100029994, symSize: 0x6C }
  - { offsetInCU: 0x24ECC, offset: 0x2CB83, size: 0x8, addend: 0x0, symName: __ZNKSt3__116reverse_iteratorIPiE4baseB7v160006Ev, symObjAddr: 0x26B60, symBinAddr: 0x100029A00, symSize: 0x64 }
  - { offsetInCU: 0x24EF5, offset: 0x2CBAC, size: 0x8, addend: 0x0, symName: __ZNSt3__119__to_address_helperINS_16reverse_iteratorIPiEEvE6__callB7v160006ERKS3_, symObjAddr: 0x26BC4, symBinAddr: 0x100029A64, symSize: 0x44 }
  - { offsetInCU: 0x24F17, offset: 0x2CBCE, size: 0x8, addend: 0x0, symName: __ZNKSt3__116reverse_iteratorIPiEptB7v160006Ev, symObjAddr: 0x26C08, symBinAddr: 0x100029AA8, symSize: 0x24 }
  - { offsetInCU: 0x24F3B, offset: 0x2CBF2, size: 0x8, addend: 0x0, symName: __ZNKSt3__116reverse_iteratorIPiEdeB7v160006Ev, symObjAddr: 0x26C2C, symBinAddr: 0x100029ACC, symSize: 0x74 }
  - { offsetInCU: 0x24F6E, offset: 0x2CC25, size: 0x8, addend: 0x0, symName: __ZNSt3__116reverse_iteratorIPiEC2B7v160006ES1_, symObjAddr: 0x26CA0, symBinAddr: 0x100029B40, symSize: 0xB8 }
  - { offsetInCU: 0x24FA4, offset: 0x2CC5B, size: 0x8, addend: 0x0, symName: __ZNSt3__16vectorINS0_IiNS_9allocatorIiEEEENS1_IS3_EEE21_ConstructTransactionD2B7v160006Ev, symObjAddr: 0x26D58, symBinAddr: 0x100029BF8, symSize: 0x278 }
  - { offsetInCU: 0x24FCC, offset: 0x2CC83, size: 0x8, addend: 0x0, symName: __ZNKSt3__16vectorINS0_IiNS_9allocatorIiEEEENS1_IS3_EEE17__annotate_shrinkB7v160006Em, symObjAddr: 0x26FD0, symBinAddr: 0x100029E70, symSize: 0xE4 }
  - { offsetInCU: 0x24FFF, offset: 0x2CCB6, size: 0x8, addend: 0x0, symName: __ZNSt3__128__exception_guard_exceptionsINS_6vectorINS1_IiNS_9allocatorIiEEEENS2_IS4_EEE16__destroy_vectorEED2B7v160006Ev, symObjAddr: 0x270B4, symBinAddr: 0x100029F54, symSize: 0xBC }
  - { offsetInCU: 0x25027, offset: 0x2CCDE, size: 0x8, addend: 0x0, symName: __ZNSt3__16vectorINS0_IiNS_9allocatorIiEEEENS1_IS3_EEE16__destroy_vectorclB7v160006Ev, symObjAddr: 0x27170, symBinAddr: 0x10002A010, symSize: 0x264 }
  - { offsetInCU: 0x2504B, offset: 0x2CD02, size: 0x8, addend: 0x0, symName: __ZNKSt3__16vectorINS0_IiNS_9allocatorIiEEEENS1_IS3_EEE17__annotate_deleteB7v160006Ev, symObjAddr: 0x273D4, symBinAddr: 0x10002A274, symSize: 0xE8 }
  - { offsetInCU: 0x2506F, offset: 0x2CD26, size: 0x8, addend: 0x0, symName: __ZNSt3__16vectorINS0_IiNS_9allocatorIiEEEENS1_IS3_EEE7__clearB7v160006Ev, symObjAddr: 0x274CC, symBinAddr: 0x10002A36C, symSize: 0x64 }
  - { offsetInCU: 0x25093, offset: 0x2CD4A, size: 0x8, addend: 0x0, symName: __ZNSt3__116allocator_traitsINS_9allocatorINS_6vectorIiNS1_IiEEEEEEE10deallocateB7v160006ERS5_PS4_m, symObjAddr: 0x27530, symBinAddr: 0x10002A3D0, symSize: 0x34 }
  - { offsetInCU: 0x250D4, offset: 0x2CD8B, size: 0x8, addend: 0x0, symName: __ZNSt3__16vectorINS0_IiNS_9allocatorIiEEEENS1_IS3_EEE22__base_destruct_at_endB7v160006EPS3_, symObjAddr: 0x27564, symBinAddr: 0x10002A404, symSize: 0x114 }
  - { offsetInCU: 0x25116, offset: 0x2CDCD, size: 0x8, addend: 0x0, symName: __ZNSt3__116allocator_traitsINS_9allocatorINS_6vectorIiNS1_IiEEEEEEE7destroyB7v160006IS4_vEEvRS5_PT_, symObjAddr: 0x27678, symBinAddr: 0x10002A518, symSize: 0x2C }
  - { offsetInCU: 0x25153, offset: 0x2CE0A, size: 0x8, addend: 0x0, symName: __ZNSt3__19allocatorINS_6vectorIiNS0_IiEEEEE7destroyB7v160006EPS3_, symObjAddr: 0x276A4, symBinAddr: 0x10002A544, symSize: 0x28 }
  - { offsetInCU: 0x25185, offset: 0x2CE3C, size: 0x8, addend: 0x0, symName: __ZNSt3__19allocatorINS_6vectorIiNS0_IiEEEEE10deallocateB7v160006EPS3_m, symObjAddr: 0x276CC, symBinAddr: 0x10002A56C, symSize: 0x50 }
  - { offsetInCU: 0x251C5, offset: 0x2CE7C, size: 0x8, addend: 0x0, symName: __ZNSt3__16vectorINS0_IiNS_9allocatorIiEEEENS1_IS3_EEED2B7v160006Ev, symObjAddr: 0x2771C, symBinAddr: 0x10002A5BC, symSize: 0x1F8 }
  - { offsetInCU: 0x251EE, offset: 0x2CEA5, size: 0x8, addend: 0x0, symName: __ZNSt3__16vectorIiNS_9allocatorIiEEE22__construct_one_at_endB7v160006IJRKiEEEvDpOT_, symObjAddr: 0x27914, symBinAddr: 0x10002A7B4, symSize: 0x36C }
  - { offsetInCU: 0x25242, offset: 0x2CEF9, size: 0x8, addend: 0x0, symName: __ZNSt3__16vectorIiNS_9allocatorIiEEE21__push_back_slow_pathIRKiEEvOT_, symObjAddr: 0x27C80, symBinAddr: 0x10002AB20, symSize: 0x3C0 }
  - { offsetInCU: 0x252A5, offset: 0x2CF5C, size: 0x8, addend: 0x0, symName: __ZNSt3__116allocator_traitsINS_9allocatorIiEEE9constructB7v160006IiJRKiEvEEvRS2_PT_DpOT0_, symObjAddr: 0x28040, symBinAddr: 0x10002AEE0, symSize: 0x34 }
  - { offsetInCU: 0x252FD, offset: 0x2CFB4, size: 0x8, addend: 0x0, symName: __ZNSt3__19allocatorIiE9constructB7v160006IiJRKiEEEvPT_DpOT0_, symObjAddr: 0x28074, symBinAddr: 0x10002AF14, symSize: 0x104 }
  - { offsetInCU: 0x25352, offset: 0x2D009, size: 0x8, addend: 0x0, symName: __ZNKSt3__16vectorIiNS_9allocatorIiEEE11__recommendB7v160006Em, symObjAddr: 0x28178, symBinAddr: 0x10002B018, symSize: 0x384 }
  - { offsetInCU: 0x253AC, offset: 0x2D063, size: 0x8, addend: 0x0, symName: __ZNSt3__114__split_bufferIiRNS_9allocatorIiEEEC1EmmS3_, symObjAddr: 0x284FC, symBinAddr: 0x10002B39C, symSize: 0x44 }
  - { offsetInCU: 0x25401, offset: 0x2D0B8, size: 0x8, addend: 0x0, symName: __ZNSt3__114__split_bufferIiRNS_9allocatorIiEEED1Ev, symObjAddr: 0x28AB4, symBinAddr: 0x10002B954, symSize: 0x2C }
  - { offsetInCU: 0x2542C, offset: 0x2D0E3, size: 0x8, addend: 0x0, symName: __ZNSt3__114__split_bufferIiRNS_9allocatorIiEEEC2EmmS3_, symObjAddr: 0x28CF4, symBinAddr: 0x10002BB94, symSize: 0x520 }
  - { offsetInCU: 0x254A7, offset: 0x2D15E, size: 0x8, addend: 0x0, symName: __ZNSt3__117__compressed_pairIPiRNS_9allocatorIiEEEC1B7v160006IDnS4_EEOT_OT0_, symObjAddr: 0x29214, symBinAddr: 0x10002C0B4, symSize: 0x3C }
  - { offsetInCU: 0x254FD, offset: 0x2D1B4, size: 0x8, addend: 0x0, symName: __ZNSt3__114__split_bufferIiRNS_9allocatorIiEEE7__allocB7v160006Ev, symObjAddr: 0x29250, symBinAddr: 0x10002C0F0, symSize: 0x28 }
  - { offsetInCU: 0x25521, offset: 0x2D1D8, size: 0x8, addend: 0x0, symName: __ZNSt3__114__split_bufferIiRNS_9allocatorIiEEE9__end_capB7v160006Ev, symObjAddr: 0x29278, symBinAddr: 0x10002C118, symSize: 0x28 }
  - { offsetInCU: 0x25545, offset: 0x2D1FC, size: 0x8, addend: 0x0, symName: __ZNSt3__117__compressed_pairIPiRNS_9allocatorIiEEEC2B7v160006IDnS4_EEOT_OT0_, symObjAddr: 0x292A0, symBinAddr: 0x10002C140, symSize: 0x48 }
  - { offsetInCU: 0x2559B, offset: 0x2D252, size: 0x8, addend: 0x0, symName: __ZNSt3__122__compressed_pair_elemIRNS_9allocatorIiEELi1ELb0EEC2B7v160006IS3_vEEOT_, symObjAddr: 0x292E8, symBinAddr: 0x10002C188, symSize: 0x70 }
  - { offsetInCU: 0x255DC, offset: 0x2D293, size: 0x8, addend: 0x0, symName: __ZNSt3__117__compressed_pairIPiRNS_9allocatorIiEEE6secondB7v160006Ev, symObjAddr: 0x29358, symBinAddr: 0x10002C1F8, symSize: 0x28 }
  - { offsetInCU: 0x25600, offset: 0x2D2B7, size: 0x8, addend: 0x0, symName: __ZNSt3__122__compressed_pair_elemIRNS_9allocatorIiEELi1ELb0EE5__getB7v160006Ev, symObjAddr: 0x29380, symBinAddr: 0x10002C220, symSize: 0x60 }
  - { offsetInCU: 0x25624, offset: 0x2D2DB, size: 0x8, addend: 0x0, symName: __ZNSt3__117__compressed_pairIPiRNS_9allocatorIiEEE5firstB7v160006Ev, symObjAddr: 0x293E0, symBinAddr: 0x10002C280, symSize: 0x24 }
  - { offsetInCU: 0x2566B, offset: 0x2D322, size: 0x8, addend: 0x0, symName: __ZNKSt3__111__move_loopINS_17_ClassicAlgPolicyEEclB7v160006INS_16reverse_iteratorIPiEES6_S6_EENS_4pairIT_T1_EES8_T0_S9_, symObjAddr: 0x2B3B0, symBinAddr: 0x10002E250, symSize: 0x3F8 }
  - { offsetInCU: 0x256E1, offset: 0x2D398, size: 0x8, addend: 0x0, symName: __ZNSt3__18_IterOpsINS_17_ClassicAlgPolicyEE11__iter_moveB7v160006IRNS_16reverse_iteratorIPiEEEENS_9enable_ifIXsr12is_referenceIDTdeclsr3stdE7declvalIRT_EEEEE5valueEDTclsr3stdE4movedeclsr3stdE7declvalISA_EEEEE4typeEOS9_, symObjAddr: 0x2C288, symBinAddr: 0x10002F128, symSize: 0x28 }
  - { offsetInCU: 0x2570C, offset: 0x2D3C3, size: 0x8, addend: 0x0, symName: __ZNSt3__18_IterOpsINS_17_ClassicAlgPolicyEE25__validate_iter_referenceB7v160006IRNS_16reverse_iteratorIPiEEEEvv, symObjAddr: 0x2C2B0, symBinAddr: 0x10002F150, symSize: 0x4 }
  - { offsetInCU: 0x25729, offset: 0x2D3E0, size: 0x8, addend: 0x0, symName: __ZNSt3__118__unwrap_iter_implINS_16reverse_iteratorIPiEELb0EE8__unwrapB7v160006ES3_, symObjAddr: 0x2C2B4, symBinAddr: 0x10002F154, symSize: 0x274 }
  - { offsetInCU: 0x25754, offset: 0x2D40B, size: 0x8, addend: 0x0, symName: __ZNSt3__14pairINS_16reverse_iteratorIPiEES3_EC1B7v160006IS3_S3_LPv0EEEOT_OT0_, symObjAddr: 0x2C528, symBinAddr: 0x10002F3C8, symSize: 0x3C }
  - { offsetInCU: 0x257B1, offset: 0x2D468, size: 0x8, addend: 0x0, symName: __ZNSt3__14pairINS_16reverse_iteratorIPiEES3_EC2B7v160006IS3_S3_LPv0EEEOT_OT0_, symObjAddr: 0x2C564, symBinAddr: 0x10002F404, symSize: 0x54 }
  - { offsetInCU: 0x2580E, offset: 0x2D4C5, size: 0x8, addend: 0x0, symName: __ZNSt3__118__unwrap_iter_implINS_16reverse_iteratorIPiEELb0EE8__rewrapB7v160006ES3_S3_, symObjAddr: 0x2C5B8, symBinAddr: 0x10002F458, symSize: 0x2E0 }
  - { offsetInCU: 0x25842, offset: 0x2D4F9, size: 0x8, addend: 0x0, symName: __ZNSt3__114__split_bufferIiRNS_9allocatorIiEEED2Ev, symObjAddr: 0x2C898, symBinAddr: 0x10002F738, symSize: 0x104 }
  - { offsetInCU: 0x2586D, offset: 0x2D524, size: 0x8, addend: 0x0, symName: __ZNSt3__114__split_bufferIiRNS_9allocatorIiEEE5clearB7v160006Ev, symObjAddr: 0x2C99C, symBinAddr: 0x10002F83C, symSize: 0x68 }
  - { offsetInCU: 0x25891, offset: 0x2D548, size: 0x8, addend: 0x0, symName: __ZNKSt3__114__split_bufferIiRNS_9allocatorIiEEE8capacityB7v160006Ev, symObjAddr: 0x2CA04, symBinAddr: 0x10002F8A4, symSize: 0xBC }
  - { offsetInCU: 0x258B5, offset: 0x2D56C, size: 0x8, addend: 0x0, symName: __ZNSt3__114__split_bufferIiRNS_9allocatorIiEEE17__destruct_at_endB7v160006EPi, symObjAddr: 0x2CAC0, symBinAddr: 0x10002F960, symSize: 0x2C }
  - { offsetInCU: 0x258E7, offset: 0x2D59E, size: 0x8, addend: 0x0, symName: __ZNSt3__114__split_bufferIiRNS_9allocatorIiEEE17__destruct_at_endB7v160006EPiNS_17integral_constantIbLb0EEE, symObjAddr: 0x2CAEC, symBinAddr: 0x10002F98C, symSize: 0x10C }
  - { offsetInCU: 0x25925, offset: 0x2D5DC, size: 0x8, addend: 0x0, symName: __ZNKSt3__114__split_bufferIiRNS_9allocatorIiEEE9__end_capB7v160006Ev, symObjAddr: 0x2CBF8, symBinAddr: 0x10002FA98, symSize: 0x28 }
  - { offsetInCU: 0x25949, offset: 0x2D600, size: 0x8, addend: 0x0, symName: __ZNKSt3__117__compressed_pairIPiRNS_9allocatorIiEEE5firstB7v160006Ev, symObjAddr: 0x2CC20, symBinAddr: 0x10002FAC0, symSize: 0x24 }
  - { offsetInCU: 0x2596D, offset: 0x2D624, size: 0x8, addend: 0x0, symName: __ZNSt3__16vectorINS_4pairIxbEENS_9allocatorIS2_EEEC2B7v160006Ev, symObjAddr: 0x2CC44, symBinAddr: 0x10002FAE4, symSize: 0x2F4 }
  - { offsetInCU: 0x25996, offset: 0x2D64D, size: 0x8, addend: 0x0, symName: __ZNSt3__117__compressed_pairIPNS_4pairIxbEENS_9allocatorIS2_EEEC1B7v160006IDnNS_18__default_init_tagEEEOT_OT0_, symObjAddr: 0x2CF38, symBinAddr: 0x10002FDD8, symSize: 0x3C }
  - { offsetInCU: 0x259EC, offset: 0x2D6A3, size: 0x8, addend: 0x0, symName: __ZNSt3__117__compressed_pairIPNS_4pairIxbEENS_9allocatorIS2_EEEC2B7v160006IDnNS_18__default_init_tagEEEOT_OT0_, symObjAddr: 0x2CF84, symBinAddr: 0x10002FE24, symSize: 0x40 }
  - { offsetInCU: 0x25A42, offset: 0x2D6F9, size: 0x8, addend: 0x0, symName: __ZNSt3__122__compressed_pair_elemIPNS_4pairIxbEELi0ELb0EEC2B7v160006IDnvEEOT_, symObjAddr: 0x2CFC4, symBinAddr: 0x10002FE64, symSize: 0x64 }
  - { offsetInCU: 0x25A83, offset: 0x2D73A, size: 0x8, addend: 0x0, symName: __ZNSt3__122__compressed_pair_elemINS_9allocatorINS_4pairIxbEEEELi1ELb1EEC2B7v160006ENS_18__default_init_tagE, symObjAddr: 0x2D028, symBinAddr: 0x10002FEC8, symSize: 0x2C }
  - { offsetInCU: 0x25AB5, offset: 0x2D76C, size: 0x8, addend: 0x0, symName: __ZNSt3__19allocatorINS_4pairIxbEEEC2B7v160006Ev, symObjAddr: 0x2D054, symBinAddr: 0x10002FEF4, symSize: 0x2C }
  - { offsetInCU: 0x25ADD, offset: 0x2D794, size: 0x8, addend: 0x0, symName: __ZNSt3__116__non_trivial_ifILb1ENS_9allocatorINS_4pairIxbEEEEEC2B7v160006Ev, symObjAddr: 0x2D080, symBinAddr: 0x10002FF20, symSize: 0x14 }
  - { offsetInCU: 0x25B05, offset: 0x2D7BC, size: 0x8, addend: 0x0, symName: __ZNSt3__16vectorINS_4pairIxbEENS_9allocatorIS2_EEED2B7v160006Ev, symObjAddr: 0x2D094, symBinAddr: 0x10002FF34, symSize: 0x1F8 }
  - { offsetInCU: 0x25B2E, offset: 0x2D7E5, size: 0x8, addend: 0x0, symName: __ZNSt3__16vectorINS_4pairIxbEENS_9allocatorIS2_EEE16__destroy_vectorC1ERS5_, symObjAddr: 0x2D28C, symBinAddr: 0x10003012C, symSize: 0x34 }
  - { offsetInCU: 0x25B65, offset: 0x2D81C, size: 0x8, addend: 0x0, symName: __ZNSt3__16vectorINS_4pairIxbEENS_9allocatorIS2_EEE16__destroy_vectorclB7v160006Ev, symObjAddr: 0x2D2C0, symBinAddr: 0x100030160, symSize: 0x264 }
  - { offsetInCU: 0x25B89, offset: 0x2D840, size: 0x8, addend: 0x0, symName: __ZNSt3__16vectorINS_4pairIxbEENS_9allocatorIS2_EEE16__destroy_vectorC2ERS5_, symObjAddr: 0x2D524, symBinAddr: 0x1000303C4, symSize: 0x70 }
  - { offsetInCU: 0x25BC0, offset: 0x2D877, size: 0x8, addend: 0x0, symName: __ZNKSt3__16vectorINS_4pairIxbEENS_9allocatorIS2_EEE17__annotate_deleteB7v160006Ev, symObjAddr: 0x2D594, symBinAddr: 0x100030434, symSize: 0xCC }
  - { offsetInCU: 0x25BE4, offset: 0x2D89B, size: 0x8, addend: 0x0, symName: __ZNSt3__16vectorINS_4pairIxbEENS_9allocatorIS2_EEE7__clearB7v160006Ev, symObjAddr: 0x2D670, symBinAddr: 0x100030510, symSize: 0x64 }
  - { offsetInCU: 0x25C08, offset: 0x2D8BF, size: 0x8, addend: 0x0, symName: __ZNSt3__116allocator_traitsINS_9allocatorINS_4pairIxbEEEEE10deallocateB7v160006ERS4_PS3_m, symObjAddr: 0x2D6D4, symBinAddr: 0x100030574, symSize: 0x34 }
  - { offsetInCU: 0x25C49, offset: 0x2D900, size: 0x8, addend: 0x0, symName: __ZNSt3__16vectorINS_4pairIxbEENS_9allocatorIS2_EEE7__allocB7v160006Ev, symObjAddr: 0x2D708, symBinAddr: 0x1000305A8, symSize: 0x28 }
  - { offsetInCU: 0x25C6D, offset: 0x2D924, size: 0x8, addend: 0x0, symName: __ZNKSt3__16vectorINS_4pairIxbEENS_9allocatorIS2_EEE8capacityB7v160006Ev, symObjAddr: 0x2D730, symBinAddr: 0x1000305D0, symSize: 0xBC }
  - { offsetInCU: 0x25C91, offset: 0x2D948, size: 0x8, addend: 0x0, symName: __ZNKSt3__16vectorINS_4pairIxbEENS_9allocatorIS2_EEE31__annotate_contiguous_containerEPKvS7_S7_S7_, symObjAddr: 0x2D7EC, symBinAddr: 0x10003068C, symSize: 0x58 }
  - { offsetInCU: 0x25CF1, offset: 0x2D9A8, size: 0x8, addend: 0x0, symName: __ZNKSt3__16vectorINS_4pairIxbEENS_9allocatorIS2_EEE4dataB7v160006Ev, symObjAddr: 0x2D844, symBinAddr: 0x1000306E4, symSize: 0x64 }
  - { offsetInCU: 0x25D15, offset: 0x2D9CC, size: 0x8, addend: 0x0, symName: __ZNSt3__16vectorINS_4pairIxbEENS_9allocatorIS2_EEE22__base_destruct_at_endB7v160006EPS2_, symObjAddr: 0x2D8A8, symBinAddr: 0x100030748, symSize: 0x114 }
  - { offsetInCU: 0x25D57, offset: 0x2DA0E, size: 0x8, addend: 0x0, symName: __ZNSt3__116allocator_traitsINS_9allocatorINS_4pairIxbEEEEE7destroyB7v160006IS3_vEEvRS4_PT_, symObjAddr: 0x2D9BC, symBinAddr: 0x10003085C, symSize: 0x2C }
  - { offsetInCU: 0x25D94, offset: 0x2DA4B, size: 0x8, addend: 0x0, symName: __ZNSt3__19allocatorINS_4pairIxbEEE7destroyB7v160006EPS2_, symObjAddr: 0x2D9E8, symBinAddr: 0x100030888, symSize: 0x14 }
  - { offsetInCU: 0x25DC6, offset: 0x2DA7D, size: 0x8, addend: 0x0, symName: __ZNSt3__19allocatorINS_4pairIxbEEE10deallocateB7v160006EPS2_m, symObjAddr: 0x2D9FC, symBinAddr: 0x10003089C, symSize: 0x4C }
  - { offsetInCU: 0x25E06, offset: 0x2DABD, size: 0x8, addend: 0x0, symName: __ZNSt3__117__compressed_pairIPNS_4pairIxbEENS_9allocatorIS2_EEE6secondB7v160006Ev, symObjAddr: 0x2DA48, symBinAddr: 0x1000308E8, symSize: 0x24 }
  - { offsetInCU: 0x25E2A, offset: 0x2DAE1, size: 0x8, addend: 0x0, symName: __ZNSt3__122__compressed_pair_elemINS_9allocatorINS_4pairIxbEEEELi1ELb1EE5__getB7v160006Ev, symObjAddr: 0x2DA6C, symBinAddr: 0x10003090C, symSize: 0x14 }
  - { offsetInCU: 0x25E4E, offset: 0x2DB05, size: 0x8, addend: 0x0, symName: __ZNKSt3__16vectorINS_4pairIxbEENS_9allocatorIS2_EEE9__end_capB7v160006Ev, symObjAddr: 0x2DA80, symBinAddr: 0x100030920, symSize: 0x28 }
  - { offsetInCU: 0x25E72, offset: 0x2DB29, size: 0x8, addend: 0x0, symName: __ZNKSt3__117__compressed_pairIPNS_4pairIxbEENS_9allocatorIS2_EEE5firstB7v160006Ev, symObjAddr: 0x2DAA8, symBinAddr: 0x100030948, symSize: 0x24 }
  - { offsetInCU: 0x25E96, offset: 0x2DB4D, size: 0x8, addend: 0x0, symName: __ZNKSt3__122__compressed_pair_elemIPNS_4pairIxbEELi0ELb0EE5__getB7v160006Ev, symObjAddr: 0x2DACC, symBinAddr: 0x10003096C, symSize: 0x14 }
  - { offsetInCU: 0x25EBA, offset: 0x2DB71, size: 0x8, addend: 0x0, symName: __ZNSt3__16vectorINS_4pairIxbEENS_9allocatorIS2_EEE9__end_capB7v160006Ev, symObjAddr: 0x2DAE0, symBinAddr: 0x100030980, symSize: 0x28 }
  - { offsetInCU: 0x25EDE, offset: 0x2DB95, size: 0x8, addend: 0x0, symName: __ZNSt3__16vectorINS_4pairIxbEENS_9allocatorIS2_EEE22__construct_one_at_endB7v160006IJRxbEEEvDpOT_, symObjAddr: 0x2DB08, symBinAddr: 0x1000309A8, symSize: 0x374 }
  - { offsetInCU: 0x25F47, offset: 0x2DBFE, size: 0x8, addend: 0x0, symName: __ZNSt3__16vectorINS_4pairIxbEENS_9allocatorIS2_EEE24__emplace_back_slow_pathIJRxbEEEvDpOT_, symObjAddr: 0x2DE7C, symBinAddr: 0x100030D1C, symSize: 0x3C8 }
  - { offsetInCU: 0x25FC2, offset: 0x2DC79, size: 0x8, addend: 0x0, symName: __ZNSt3__16vectorINS_4pairIxbEENS_9allocatorIS2_EEE4backB7v160006Ev, symObjAddr: 0x2E244, symBinAddr: 0x1000310E4, symSize: 0x68 }
  - { offsetInCU: 0x25FE6, offset: 0x2DC9D, size: 0x8, addend: 0x0, symName: __ZNSt3__117__compressed_pairIPNS_4pairIxbEENS_9allocatorIS2_EEE5firstB7v160006Ev, symObjAddr: 0x2E2AC, symBinAddr: 0x10003114C, symSize: 0x24 }
  - { offsetInCU: 0x2600A, offset: 0x2DCC1, size: 0x8, addend: 0x0, symName: __ZNSt3__122__compressed_pair_elemIPNS_4pairIxbEELi0ELb0EE5__getB7v160006Ev, symObjAddr: 0x2E2D0, symBinAddr: 0x100031170, symSize: 0x14 }
  - { offsetInCU: 0x26047, offset: 0x2DCFE, size: 0x8, addend: 0x0, symName: __ZNSt3__16vectorINS_4pairIxbEENS_9allocatorIS2_EEE21_ConstructTransactionC1B7v160006ERS5_m, symObjAddr: 0x2E2E4, symBinAddr: 0x100031184, symSize: 0x3C }
  - { offsetInCU: 0x2608D, offset: 0x2DD44, size: 0x8, addend: 0x0, symName: __ZNSt3__116allocator_traitsINS_9allocatorINS_4pairIxbEEEEE9constructB7v160006IS3_JRxbEvEEvRS4_PT_DpOT0_, symObjAddr: 0x2E320, symBinAddr: 0x1000311C0, symSize: 0x3C }
  - { offsetInCU: 0x260F9, offset: 0x2DDB0, size: 0x8, addend: 0x0, symName: __ZNSt3__16vectorINS_4pairIxbEENS_9allocatorIS2_EEE21_ConstructTransactionD1B7v160006Ev, symObjAddr: 0x2E35C, symBinAddr: 0x1000311FC, symSize: 0x2C }
  - { offsetInCU: 0x26121, offset: 0x2DDD8, size: 0x8, addend: 0x0, symName: __ZNSt3__16vectorINS_4pairIxbEENS_9allocatorIS2_EEE21_ConstructTransactionC2B7v160006ERS5_m, symObjAddr: 0x2E388, symBinAddr: 0x100031228, symSize: 0x1D0 }
  - { offsetInCU: 0x26167, offset: 0x2DE1E, size: 0x8, addend: 0x0, symName: __ZNKSt3__16vectorINS_4pairIxbEENS_9allocatorIS2_EEE19__annotate_increaseB7v160006Em, symObjAddr: 0x2E558, symBinAddr: 0x1000313F8, symSize: 0xD8 }
  - { offsetInCU: 0x2619A, offset: 0x2DE51, size: 0x8, addend: 0x0, symName: __ZNSt3__19allocatorINS_4pairIxbEEE9constructB7v160006IS2_JRxbEEEvPT_DpOT0_, symObjAddr: 0x2E630, symBinAddr: 0x1000314D0, symSize: 0x38 }
  - { offsetInCU: 0x26202, offset: 0x2DEB9, size: 0x8, addend: 0x0, symName: __ZNSt3__14pairIxbEC1B7v160006IRxbLPv0EEEOT_OT0_, symObjAddr: 0x2E668, symBinAddr: 0x100031508, symSize: 0x3C }
  - { offsetInCU: 0x2625F, offset: 0x2DF16, size: 0x8, addend: 0x0, symName: __ZNSt3__14pairIxbEC2B7v160006IRxbLPv0EEEOT_OT0_, symObjAddr: 0x2E6A4, symBinAddr: 0x100031544, symSize: 0x188 }
  - { offsetInCU: 0x262BC, offset: 0x2DF73, size: 0x8, addend: 0x0, symName: __ZNSt3__16vectorINS_4pairIxbEENS_9allocatorIS2_EEE21_ConstructTransactionD2B7v160006Ev, symObjAddr: 0x2E82C, symBinAddr: 0x1000316CC, symSize: 0x278 }
  - { offsetInCU: 0x262E4, offset: 0x2DF9B, size: 0x8, addend: 0x0, symName: __ZNKSt3__16vectorINS_4pairIxbEENS_9allocatorIS2_EEE17__annotate_shrinkB7v160006Em, symObjAddr: 0x2EAA4, symBinAddr: 0x100031944, symSize: 0xC8 }
  - { offsetInCU: 0x26317, offset: 0x2DFCE, size: 0x8, addend: 0x0, symName: __ZNKSt3__16vectorINS_4pairIxbEENS_9allocatorIS2_EEE11__recommendB7v160006Em, symObjAddr: 0x2EB6C, symBinAddr: 0x100031A0C, symSize: 0x384 }
  - { offsetInCU: 0x26371, offset: 0x2E028, size: 0x8, addend: 0x0, symName: __ZNSt3__114__split_bufferINS_4pairIxbEERNS_9allocatorIS2_EEEC1EmmS5_, symObjAddr: 0x2EEF0, symBinAddr: 0x100031D90, symSize: 0x44 }
  - { offsetInCU: 0x263C6, offset: 0x2E07D, size: 0x8, addend: 0x0, symName: __ZNSt3__114__split_bufferINS_4pairIxbEERNS_9allocatorIS2_EEED1Ev, symObjAddr: 0x2F4A8, symBinAddr: 0x100032348, symSize: 0x2C }
  - { offsetInCU: 0x263F1, offset: 0x2E0A8, size: 0x8, addend: 0x0, symName: __ZNKSt3__16vectorINS_4pairIxbEENS_9allocatorIS2_EEE8max_sizeEv, symObjAddr: 0x2F4D4, symBinAddr: 0x100032374, symSize: 0x2FC }
  - { offsetInCU: 0x26418, offset: 0x2E0CF, size: 0x8, addend: 0x0, symName: __ZNKSt3__16vectorINS_4pairIxbEENS_9allocatorIS2_EEE20__throw_length_errorB7v160006Ev, symObjAddr: 0x2F7D0, symBinAddr: 0x100032670, symSize: 0x20 }
  - { offsetInCU: 0x26446, offset: 0x2E0FD, size: 0x8, addend: 0x0, symName: __ZNSt3__116allocator_traitsINS_9allocatorINS_4pairIxbEEEEE8max_sizeB7v160006IS4_vEEmRKS4_, symObjAddr: 0x2F7F0, symBinAddr: 0x100032690, symSize: 0x24 }
  - { offsetInCU: 0x26474, offset: 0x2E12B, size: 0x8, addend: 0x0, symName: __ZNKSt3__16vectorINS_4pairIxbEENS_9allocatorIS2_EEE7__allocB7v160006Ev, symObjAddr: 0x2F814, symBinAddr: 0x1000326B4, symSize: 0x28 }
  - { offsetInCU: 0x26498, offset: 0x2E14F, size: 0x8, addend: 0x0, symName: __ZNKSt3__19allocatorINS_4pairIxbEEE8max_sizeB7v160006Ev, symObjAddr: 0x2F83C, symBinAddr: 0x1000326DC, symSize: 0x14 }
  - { offsetInCU: 0x264BC, offset: 0x2E173, size: 0x8, addend: 0x0, symName: __ZNKSt3__117__compressed_pairIPNS_4pairIxbEENS_9allocatorIS2_EEE6secondB7v160006Ev, symObjAddr: 0x2F850, symBinAddr: 0x1000326F0, symSize: 0x24 }
  - { offsetInCU: 0x264E0, offset: 0x2E197, size: 0x8, addend: 0x0, symName: __ZNKSt3__122__compressed_pair_elemINS_9allocatorINS_4pairIxbEEEELi1ELb1EE5__getB7v160006Ev, symObjAddr: 0x2F874, symBinAddr: 0x100032714, symSize: 0x14 }
  - { offsetInCU: 0x26504, offset: 0x2E1BB, size: 0x8, addend: 0x0, symName: __ZNSt3__114__split_bufferINS_4pairIxbEERNS_9allocatorIS2_EEEC2EmmS5_, symObjAddr: 0x2F888, symBinAddr: 0x100032728, symSize: 0x520 }
  - { offsetInCU: 0x2657F, offset: 0x2E236, size: 0x8, addend: 0x0, symName: __ZNSt3__117__compressed_pairIPNS_4pairIxbEERNS_9allocatorIS2_EEEC1B7v160006IDnS6_EEOT_OT0_, symObjAddr: 0x2FDA8, symBinAddr: 0x100032C48, symSize: 0x3C }
  - { offsetInCU: 0x265D5, offset: 0x2E28C, size: 0x8, addend: 0x0, symName: __ZNSt3__114__split_bufferINS_4pairIxbEERNS_9allocatorIS2_EEE7__allocB7v160006Ev, symObjAddr: 0x30070, symBinAddr: 0x100032F10, symSize: 0x28 }
  - { offsetInCU: 0x265F9, offset: 0x2E2B0, size: 0x8, addend: 0x0, symName: __ZNSt3__114__split_bufferINS_4pairIxbEERNS_9allocatorIS2_EEE9__end_capB7v160006Ev, symObjAddr: 0x30098, symBinAddr: 0x100032F38, symSize: 0x28 }
  - { offsetInCU: 0x2661D, offset: 0x2E2D4, size: 0x8, addend: 0x0, symName: __ZNSt3__117__compressed_pairIPNS_4pairIxbEERNS_9allocatorIS2_EEEC2B7v160006IDnS6_EEOT_OT0_, symObjAddr: 0x300C0, symBinAddr: 0x100032F60, symSize: 0x48 }
  - { offsetInCU: 0x26673, offset: 0x2E32A, size: 0x8, addend: 0x0, symName: __ZNSt3__122__compressed_pair_elemIRNS_9allocatorINS_4pairIxbEEEELi1ELb0EEC2B7v160006IS5_vEEOT_, symObjAddr: 0x30108, symBinAddr: 0x100032FA8, symSize: 0x70 }
  - { offsetInCU: 0x266B4, offset: 0x2E36B, size: 0x8, addend: 0x0, symName: __ZNSt3__19allocatorINS_4pairIxbEEE8allocateB7v160006Em, symObjAddr: 0x30178, symBinAddr: 0x100033018, symSize: 0x5C }
  - { offsetInCU: 0x266E6, offset: 0x2E39D, size: 0x8, addend: 0x0, symName: __ZNSt3__117__compressed_pairIPNS_4pairIxbEERNS_9allocatorIS2_EEE6secondB7v160006Ev, symObjAddr: 0x301D4, symBinAddr: 0x100033074, symSize: 0x28 }
  - { offsetInCU: 0x2670A, offset: 0x2E3C1, size: 0x8, addend: 0x0, symName: __ZNSt3__122__compressed_pair_elemIRNS_9allocatorINS_4pairIxbEEEELi1ELb0EE5__getB7v160006Ev, symObjAddr: 0x301FC, symBinAddr: 0x10003309C, symSize: 0x60 }
  - { offsetInCU: 0x2672E, offset: 0x2E3E5, size: 0x8, addend: 0x0, symName: __ZNSt3__117__compressed_pairIPNS_4pairIxbEERNS_9allocatorIS2_EEE5firstB7v160006Ev, symObjAddr: 0x3025C, symBinAddr: 0x1000330FC, symSize: 0x24 }
  - { offsetInCU: 0x26752, offset: 0x2E409, size: 0x8, addend: 0x0, symName: __ZNSt3__116reverse_iteratorIPNS_4pairIxbEEEC1B7v160006ES3_, symObjAddr: 0x307C4, symBinAddr: 0x100033664, symSize: 0x34 }
  - { offsetInCU: 0x26788, offset: 0x2E43F, size: 0x8, addend: 0x0, symName: __ZNKSt3__116reverse_iteratorIPNS_4pairIxbEEE4baseB7v160006Ev, symObjAddr: 0x307F8, symBinAddr: 0x100033698, symSize: 0x64 }
  - { offsetInCU: 0x267AC, offset: 0x2E463, size: 0x8, addend: 0x0, symName: __ZNKSt3__16vectorINS_4pairIxbEENS_9allocatorIS2_EEE14__annotate_newB7v160006Em, symObjAddr: 0x30990, symBinAddr: 0x100033830, symSize: 0xC0 }
  - { offsetInCU: 0x267DF, offset: 0x2E496, size: 0x8, addend: 0x0, symName: __ZNSt3__129_AllocatorDestroyRangeReverseINS_9allocatorINS_4pairIxbEEEENS_16reverse_iteratorIPS3_EEEC1B7v160006ERS4_RS7_SA_, symObjAddr: 0x30C58, symBinAddr: 0x100033AF8, symSize: 0x44 }
  - { offsetInCU: 0x26834, offset: 0x2E4EB, size: 0x8, addend: 0x0, symName: __ZNSt3__116allocator_traitsINS_9allocatorINS_4pairIxbEEEEE9constructB7v160006IS3_JS3_EvEEvRS4_PT_DpOT0_, symObjAddr: 0x30CE4, symBinAddr: 0x100033B84, symSize: 0x34 }
  - { offsetInCU: 0x2688C, offset: 0x2E543, size: 0x8, addend: 0x0, symName: __ZNKSt3__116reverse_iteratorIPNS_4pairIxbEEEdeB7v160006Ev, symObjAddr: 0x30D3C, symBinAddr: 0x100033BDC, symSize: 0x74 }
  - { offsetInCU: 0x268BF, offset: 0x2E576, size: 0x8, addend: 0x0, symName: __ZNSt3__116reverse_iteratorIPNS_4pairIxbEEEppB7v160006Ev, symObjAddr: 0x30DB0, symBinAddr: 0x100033C50, symSize: 0x6C }
  - { offsetInCU: 0x268E3, offset: 0x2E59A, size: 0x8, addend: 0x0, symName: __ZNSt3__128__exception_guard_exceptionsINS_29_AllocatorDestroyRangeReverseINS_9allocatorINS_4pairIxbEEEENS_16reverse_iteratorIPS4_EEEEE10__completeB7v160006Ev, symObjAddr: 0x30E1C, symBinAddr: 0x100033CBC, symSize: 0x8C }
  - { offsetInCU: 0x26907, offset: 0x2E5BE, size: 0x8, addend: 0x0, symName: __ZNSt3__128__exception_guard_exceptionsINS_29_AllocatorDestroyRangeReverseINS_9allocatorINS_4pairIxbEEEENS_16reverse_iteratorIPS4_EEEEED1B7v160006Ev, symObjAddr: 0x30EA8, symBinAddr: 0x100033D48, symSize: 0x2C }
  - { offsetInCU: 0x2692F, offset: 0x2E5E6, size: 0x8, addend: 0x0, symName: __ZNSt3__128__exception_guard_exceptionsINS_29_AllocatorDestroyRangeReverseINS_9allocatorINS_4pairIxbEEEENS_16reverse_iteratorIPS4_EEEEEC1B7v160006ES9_, symObjAddr: 0x30ED4, symBinAddr: 0x100033D74, symSize: 0x34 }
  - { offsetInCU: 0x26966, offset: 0x2E61D, size: 0x8, addend: 0x0, symName: __ZNSt3__128__exception_guard_exceptionsINS_29_AllocatorDestroyRangeReverseINS_9allocatorINS_4pairIxbEEEENS_16reverse_iteratorIPS4_EEEEEC2B7v160006ES9_, symObjAddr: 0x30F08, symBinAddr: 0x100033DA8, symSize: 0xA4 }
  - { offsetInCU: 0x2699D, offset: 0x2E654, size: 0x8, addend: 0x0, symName: __ZNSt3__129_AllocatorDestroyRangeReverseINS_9allocatorINS_4pairIxbEEEENS_16reverse_iteratorIPS3_EEEC2B7v160006ERS4_RS7_SA_, symObjAddr: 0x30FAC, symBinAddr: 0x100033E4C, symSize: 0x104 }
  - { offsetInCU: 0x269F2, offset: 0x2E6A9, size: 0x8, addend: 0x0, symName: __ZNSt3__19allocatorINS_4pairIxbEEE9constructB7v160006IS2_JS2_EEEvPT_DpOT0_, symObjAddr: 0x310B0, symBinAddr: 0x100033F50, symSize: 0x34 }
  - { offsetInCU: 0x26A4C, offset: 0x2E703, size: 0x8, addend: 0x0, symName: __ZNSt3__119__to_address_helperINS_16reverse_iteratorIPNS_4pairIxbEEEEvE6__callB7v160006ERKS5_, symObjAddr: 0x310E4, symBinAddr: 0x100033F84, symSize: 0x44 }
  - { offsetInCU: 0x26A6E, offset: 0x2E725, size: 0x8, addend: 0x0, symName: __ZNKSt3__116reverse_iteratorIPNS_4pairIxbEEEptB7v160006Ev, symObjAddr: 0x31128, symBinAddr: 0x100033FC8, symSize: 0x24 }
  - { offsetInCU: 0x26A92, offset: 0x2E749, size: 0x8, addend: 0x0, symName: __ZNSt3__128__exception_guard_exceptionsINS_29_AllocatorDestroyRangeReverseINS_9allocatorINS_4pairIxbEEEENS_16reverse_iteratorIPS4_EEEEED2B7v160006Ev, symObjAddr: 0x3114C, symBinAddr: 0x100033FEC, symSize: 0xBC }
  - { offsetInCU: 0x26ABA, offset: 0x2E771, size: 0x8, addend: 0x0, symName: __ZNKSt3__129_AllocatorDestroyRangeReverseINS_9allocatorINS_4pairIxbEEEENS_16reverse_iteratorIPS3_EEEclB7v160006Ev, symObjAddr: 0x31208, symBinAddr: 0x1000340A8, symSize: 0x3A8 }
  - { offsetInCU: 0x26ADF, offset: 0x2E796, size: 0x8, addend: 0x0, symName: __ZNSt3__116reverse_iteratorINS0_IPNS_4pairIxbEEEEEC1B7v160006ES4_, symObjAddr: 0x31620, symBinAddr: 0x1000344C0, symSize: 0x248 }
  - { offsetInCU: 0x26B1A, offset: 0x2E7D1, size: 0x8, addend: 0x0, symName: __ZNSt3__116reverse_iteratorINS0_IPNS_4pairIxbEEEEEppB7v160006Ev, symObjAddr: 0x31B58, symBinAddr: 0x1000349F8, symSize: 0x30 }
  - { offsetInCU: 0x26B3E, offset: 0x2E7F5, size: 0x8, addend: 0x0, symName: __ZNKSt3__116reverse_iteratorINS0_IPNS_4pairIxbEEEEE4baseB7v160006Ev, symObjAddr: 0x31B88, symBinAddr: 0x100034A28, symSize: 0x20C }
  - { offsetInCU: 0x26B68, offset: 0x2E81F, size: 0x8, addend: 0x0, symName: __ZNSt3__119__to_address_helperINS_16reverse_iteratorINS1_IPNS_4pairIxbEEEEEEvE6__callB7v160006ERKS6_, symObjAddr: 0x31D94, symBinAddr: 0x100034C34, symSize: 0x44 }
  - { offsetInCU: 0x26B8A, offset: 0x2E841, size: 0x8, addend: 0x0, symName: __ZNKSt3__116reverse_iteratorINS0_IPNS_4pairIxbEEEEEptB7v160006Ev, symObjAddr: 0x31DD8, symBinAddr: 0x100034C78, symSize: 0x24 }
  - { offsetInCU: 0x26BAE, offset: 0x2E865, size: 0x8, addend: 0x0, symName: __ZNKSt3__116reverse_iteratorINS0_IPNS_4pairIxbEEEEEdeB7v160006Ev, symObjAddr: 0x31DFC, symBinAddr: 0x100034C9C, symSize: 0x1EC }
  - { offsetInCU: 0x26BE6, offset: 0x2E89D, size: 0x8, addend: 0x0, symName: __ZNSt3__116reverse_iteratorIPNS_4pairIxbEEEmmB7v160006Ev, symObjAddr: 0x31FE8, symBinAddr: 0x100034E88, symSize: 0x6C }
  - { offsetInCU: 0x26C0A, offset: 0x2E8C1, size: 0x8, addend: 0x0, symName: __ZNSt3__116reverse_iteratorINS0_IPNS_4pairIxbEEEEEC2B7v160006ES4_, symObjAddr: 0x32054, symBinAddr: 0x100034EF4, symSize: 0x22C }
  - { offsetInCU: 0x26C45, offset: 0x2E8FC, size: 0x8, addend: 0x0, symName: __ZNSt3__116reverse_iteratorIPNS_4pairIxbEEEC2B7v160006ES3_, symObjAddr: 0x32280, symBinAddr: 0x100035120, symSize: 0xB8 }
  - { offsetInCU: 0x26C7B, offset: 0x2E932, size: 0x8, addend: 0x0, symName: __ZNSt3__114__split_bufferINS_4pairIxbEERNS_9allocatorIS2_EEED2Ev, symObjAddr: 0x32338, symBinAddr: 0x1000351D8, symSize: 0x104 }
  - { offsetInCU: 0x26CA6, offset: 0x2E95D, size: 0x8, addend: 0x0, symName: __ZNSt3__114__split_bufferINS_4pairIxbEERNS_9allocatorIS2_EEE5clearB7v160006Ev, symObjAddr: 0x3243C, symBinAddr: 0x1000352DC, symSize: 0x68 }
  - { offsetInCU: 0x26CCA, offset: 0x2E981, size: 0x8, addend: 0x0, symName: __ZNKSt3__114__split_bufferINS_4pairIxbEERNS_9allocatorIS2_EEE8capacityB7v160006Ev, symObjAddr: 0x324A4, symBinAddr: 0x100035344, symSize: 0xBC }
  - { offsetInCU: 0x26CEE, offset: 0x2E9A5, size: 0x8, addend: 0x0, symName: __ZNSt3__114__split_bufferINS_4pairIxbEERNS_9allocatorIS2_EEE17__destruct_at_endB7v160006EPS2_, symObjAddr: 0x32560, symBinAddr: 0x100035400, symSize: 0x2C }
  - { offsetInCU: 0x26D20, offset: 0x2E9D7, size: 0x8, addend: 0x0, symName: __ZNSt3__114__split_bufferINS_4pairIxbEERNS_9allocatorIS2_EEE17__destruct_at_endB7v160006EPS2_NS_17integral_constantIbLb0EEE, symObjAddr: 0x3258C, symBinAddr: 0x10003542C, symSize: 0x10C }
  - { offsetInCU: 0x26D5E, offset: 0x2EA15, size: 0x8, addend: 0x0, symName: __ZNKSt3__114__split_bufferINS_4pairIxbEERNS_9allocatorIS2_EEE9__end_capB7v160006Ev, symObjAddr: 0x32698, symBinAddr: 0x100035538, symSize: 0x28 }
  - { offsetInCU: 0x26D82, offset: 0x2EA39, size: 0x8, addend: 0x0, symName: __ZNKSt3__117__compressed_pairIPNS_4pairIxbEERNS_9allocatorIS2_EEE5firstB7v160006Ev, symObjAddr: 0x326C0, symBinAddr: 0x100035560, symSize: 0x24 }
  - { offsetInCU: 0x26DA6, offset: 0x2EA5D, size: 0x8, addend: 0x0, symName: __ZNSt3__16vectorINS_4pairIxbEENS_9allocatorIS2_EEE11__make_iterB7v160006EPS2_, symObjAddr: 0x326E4, symBinAddr: 0x100035584, symSize: 0x200 }
  - { offsetInCU: 0x26DDB, offset: 0x2EA92, size: 0x8, addend: 0x0, symName: __ZNSt3__111__wrap_iterIPNS_4pairIxbEEEC1B7v160006EPKvS3_, symObjAddr: 0x328E4, symBinAddr: 0x100035784, symSize: 0x3C }
  - { offsetInCU: 0x26E1F, offset: 0x2EAD6, size: 0x8, addend: 0x0, symName: __ZNSt3__111__wrap_iterIPNS_4pairIxbEEEC2B7v160006EPKvS3_, symObjAddr: 0x32920, symBinAddr: 0x1000357C0, symSize: 0x74 }
  - { offsetInCU: 0x26E63, offset: 0x2EB1A, size: 0x8, addend: 0x0, symName: __ZNSt3__16vectorINS_4pairI8rangeNumbEENS_9allocatorIS3_EEEC2B7v160006Ev, symObjAddr: 0x32994, symBinAddr: 0x100035834, symSize: 0x2F4 }
  - { offsetInCU: 0x26E8C, offset: 0x2EB43, size: 0x8, addend: 0x0, symName: __ZNSt3__117__compressed_pairIPNS_4pairI8rangeNumbEENS_9allocatorIS3_EEEC1B7v160006IDnNS_18__default_init_tagEEEOT_OT0_, symObjAddr: 0x32C88, symBinAddr: 0x100035B28, symSize: 0x3C }
  - { offsetInCU: 0x26EE2, offset: 0x2EB99, size: 0x8, addend: 0x0, symName: __ZNSt3__117__compressed_pairIPNS_4pairI8rangeNumbEENS_9allocatorIS3_EEEC2B7v160006IDnNS_18__default_init_tagEEEOT_OT0_, symObjAddr: 0x32CD4, symBinAddr: 0x100035B74, symSize: 0x40 }
  - { offsetInCU: 0x26F38, offset: 0x2EBEF, size: 0x8, addend: 0x0, symName: __ZNSt3__122__compressed_pair_elemIPNS_4pairI8rangeNumbEELi0ELb0EEC2B7v160006IDnvEEOT_, symObjAddr: 0x32D14, symBinAddr: 0x100035BB4, symSize: 0x64 }
  - { offsetInCU: 0x26F79, offset: 0x2EC30, size: 0x8, addend: 0x0, symName: __ZNSt3__122__compressed_pair_elemINS_9allocatorINS_4pairI8rangeNumbEEEELi1ELb1EEC2B7v160006ENS_18__default_init_tagE, symObjAddr: 0x32D78, symBinAddr: 0x100035C18, symSize: 0x2C }
  - { offsetInCU: 0x26FAB, offset: 0x2EC62, size: 0x8, addend: 0x0, symName: __ZNSt3__19allocatorINS_4pairI8rangeNumbEEEC2B7v160006Ev, symObjAddr: 0x32DA4, symBinAddr: 0x100035C44, symSize: 0x2C }
  - { offsetInCU: 0x26FD3, offset: 0x2EC8A, size: 0x8, addend: 0x0, symName: __ZNSt3__116__non_trivial_ifILb1ENS_9allocatorINS_4pairI8rangeNumbEEEEEC2B7v160006Ev, symObjAddr: 0x32DD0, symBinAddr: 0x100035C70, symSize: 0x14 }
  - { offsetInCU: 0x26FFB, offset: 0x2ECB2, size: 0x8, addend: 0x0, symName: __ZNSt3__16vectorINS_4pairI8rangeNumbEENS_9allocatorIS3_EEED2B7v160006Ev, symObjAddr: 0x32DE4, symBinAddr: 0x100035C84, symSize: 0x1F8 }
  - { offsetInCU: 0x27024, offset: 0x2ECDB, size: 0x8, addend: 0x0, symName: __ZNSt3__16vectorINS_4pairI8rangeNumbEENS_9allocatorIS3_EEE16__destroy_vectorC1ERS6_, symObjAddr: 0x32FDC, symBinAddr: 0x100035E7C, symSize: 0x34 }
  - { offsetInCU: 0x2705B, offset: 0x2ED12, size: 0x8, addend: 0x0, symName: __ZNSt3__16vectorINS_4pairI8rangeNumbEENS_9allocatorIS3_EEE16__destroy_vectorclB7v160006Ev, symObjAddr: 0x33010, symBinAddr: 0x100035EB0, symSize: 0x264 }
  - { offsetInCU: 0x2707F, offset: 0x2ED36, size: 0x8, addend: 0x0, symName: __ZNSt3__16vectorINS_4pairI8rangeNumbEENS_9allocatorIS3_EEE16__destroy_vectorC2ERS6_, symObjAddr: 0x33274, symBinAddr: 0x100036114, symSize: 0x70 }
  - { offsetInCU: 0x270B6, offset: 0x2ED6D, size: 0x8, addend: 0x0, symName: __ZNKSt3__16vectorINS_4pairI8rangeNumbEENS_9allocatorIS3_EEE17__annotate_deleteB7v160006Ev, symObjAddr: 0x332E4, symBinAddr: 0x100036184, symSize: 0xE8 }
  - { offsetInCU: 0x270DA, offset: 0x2ED91, size: 0x8, addend: 0x0, symName: __ZNSt3__16vectorINS_4pairI8rangeNumbEENS_9allocatorIS3_EEE7__clearB7v160006Ev, symObjAddr: 0x333DC, symBinAddr: 0x10003627C, symSize: 0x64 }
  - { offsetInCU: 0x270FE, offset: 0x2EDB5, size: 0x8, addend: 0x0, symName: __ZNSt3__116allocator_traitsINS_9allocatorINS_4pairI8rangeNumbEEEEE10deallocateB7v160006ERS5_PS4_m, symObjAddr: 0x33440, symBinAddr: 0x1000362E0, symSize: 0x34 }
  - { offsetInCU: 0x2713F, offset: 0x2EDF6, size: 0x8, addend: 0x0, symName: __ZNSt3__16vectorINS_4pairI8rangeNumbEENS_9allocatorIS3_EEE7__allocB7v160006Ev, symObjAddr: 0x33474, symBinAddr: 0x100036314, symSize: 0x28 }
  - { offsetInCU: 0x27163, offset: 0x2EE1A, size: 0x8, addend: 0x0, symName: __ZNKSt3__16vectorINS_4pairI8rangeNumbEENS_9allocatorIS3_EEE8capacityB7v160006Ev, symObjAddr: 0x3349C, symBinAddr: 0x10003633C, symSize: 0xBC }
  - { offsetInCU: 0x27187, offset: 0x2EE3E, size: 0x8, addend: 0x0, symName: __ZNKSt3__16vectorINS_4pairI8rangeNumbEENS_9allocatorIS3_EEE31__annotate_contiguous_containerEPKvS8_S8_S8_, symObjAddr: 0x33558, symBinAddr: 0x1000363F8, symSize: 0x58 }
  - { offsetInCU: 0x271E7, offset: 0x2EE9E, size: 0x8, addend: 0x0, symName: __ZNKSt3__16vectorINS_4pairI8rangeNumbEENS_9allocatorIS3_EEE4dataB7v160006Ev, symObjAddr: 0x335B0, symBinAddr: 0x100036450, symSize: 0x64 }
  - { offsetInCU: 0x2720B, offset: 0x2EEC2, size: 0x8, addend: 0x0, symName: __ZNKSt3__16vectorINS_4pairI8rangeNumbEENS_9allocatorIS3_EEE4sizeB7v160006Ev, symObjAddr: 0x33614, symBinAddr: 0x1000364B4, symSize: 0xB0 }
  - { offsetInCU: 0x2722F, offset: 0x2EEE6, size: 0x8, addend: 0x0, symName: __ZNSt3__16vectorINS_4pairI8rangeNumbEENS_9allocatorIS3_EEE22__base_destruct_at_endB7v160006EPS3_, symObjAddr: 0x336D8, symBinAddr: 0x100036578, symSize: 0x114 }
  - { offsetInCU: 0x27271, offset: 0x2EF28, size: 0x8, addend: 0x0, symName: __ZNSt3__116allocator_traitsINS_9allocatorINS_4pairI8rangeNumbEEEEE7destroyB7v160006IS4_vEEvRS5_PT_, symObjAddr: 0x337EC, symBinAddr: 0x10003668C, symSize: 0x2C }
  - { offsetInCU: 0x272AE, offset: 0x2EF65, size: 0x8, addend: 0x0, symName: __ZNSt3__19allocatorINS_4pairI8rangeNumbEEE7destroyB7v160006EPS3_, symObjAddr: 0x33818, symBinAddr: 0x1000366B8, symSize: 0x14 }
  - { offsetInCU: 0x272E0, offset: 0x2EF97, size: 0x8, addend: 0x0, symName: __ZNSt3__19allocatorINS_4pairI8rangeNumbEEE10deallocateB7v160006EPS3_m, symObjAddr: 0x3382C, symBinAddr: 0x1000366CC, symSize: 0x50 }
  - { offsetInCU: 0x27320, offset: 0x2EFD7, size: 0x8, addend: 0x0, symName: __ZNSt3__117__compressed_pairIPNS_4pairI8rangeNumbEENS_9allocatorIS3_EEE6secondB7v160006Ev, symObjAddr: 0x3387C, symBinAddr: 0x10003671C, symSize: 0x24 }
  - { offsetInCU: 0x27344, offset: 0x2EFFB, size: 0x8, addend: 0x0, symName: __ZNSt3__122__compressed_pair_elemINS_9allocatorINS_4pairI8rangeNumbEEEELi1ELb1EE5__getB7v160006Ev, symObjAddr: 0x338A0, symBinAddr: 0x100036740, symSize: 0x14 }
  - { offsetInCU: 0x27368, offset: 0x2F01F, size: 0x8, addend: 0x0, symName: __ZNKSt3__16vectorINS_4pairI8rangeNumbEENS_9allocatorIS3_EEE9__end_capB7v160006Ev, symObjAddr: 0x338B4, symBinAddr: 0x100036754, symSize: 0x28 }
  - { offsetInCU: 0x2738C, offset: 0x2F043, size: 0x8, addend: 0x0, symName: __ZNKSt3__117__compressed_pairIPNS_4pairI8rangeNumbEENS_9allocatorIS3_EEE5firstB7v160006Ev, symObjAddr: 0x338DC, symBinAddr: 0x10003677C, symSize: 0x24 }
  - { offsetInCU: 0x273B0, offset: 0x2F067, size: 0x8, addend: 0x0, symName: __ZNKSt3__122__compressed_pair_elemIPNS_4pairI8rangeNumbEELi0ELb0EE5__getB7v160006Ev, symObjAddr: 0x33900, symBinAddr: 0x1000367A0, symSize: 0x14 }
  - { offsetInCU: 0x273D4, offset: 0x2F08B, size: 0x8, addend: 0x0, symName: __ZNSt3__16vectorINS_4pairI8rangeNumbEENS_9allocatorIS3_EEE9__end_capB7v160006Ev, symObjAddr: 0x33914, symBinAddr: 0x1000367B4, symSize: 0x28 }
  - { offsetInCU: 0x273F8, offset: 0x2F0AF, size: 0x8, addend: 0x0, symName: __ZNSt3__16vectorINS_4pairI8rangeNumbEENS_9allocatorIS3_EEE22__construct_one_at_endB7v160006IJS2_bEEEvDpOT_, symObjAddr: 0x3393C, symBinAddr: 0x1000367DC, symSize: 0x374 }
  - { offsetInCU: 0x27461, offset: 0x2F118, size: 0x8, addend: 0x0, symName: __ZNSt3__16vectorINS_4pairI8rangeNumbEENS_9allocatorIS3_EEE24__emplace_back_slow_pathIJS2_bEEEvDpOT_, symObjAddr: 0x33CB0, symBinAddr: 0x100036B50, symSize: 0x3C8 }
  - { offsetInCU: 0x274DC, offset: 0x2F193, size: 0x8, addend: 0x0, symName: __ZNSt3__117__compressed_pairIPNS_4pairI8rangeNumbEENS_9allocatorIS3_EEE5firstB7v160006Ev, symObjAddr: 0x34078, symBinAddr: 0x100036F18, symSize: 0x24 }
  - { offsetInCU: 0x27500, offset: 0x2F1B7, size: 0x8, addend: 0x0, symName: __ZNSt3__122__compressed_pair_elemIPNS_4pairI8rangeNumbEELi0ELb0EE5__getB7v160006Ev, symObjAddr: 0x3409C, symBinAddr: 0x100036F3C, symSize: 0x14 }
  - { offsetInCU: 0x2753D, offset: 0x2F1F4, size: 0x8, addend: 0x0, symName: __ZNSt3__16vectorINS_4pairI8rangeNumbEENS_9allocatorIS3_EEE21_ConstructTransactionC1B7v160006ERS6_m, symObjAddr: 0x340B0, symBinAddr: 0x100036F50, symSize: 0x3C }
  - { offsetInCU: 0x27583, offset: 0x2F23A, size: 0x8, addend: 0x0, symName: __ZNSt3__116allocator_traitsINS_9allocatorINS_4pairI8rangeNumbEEEEE9constructB7v160006IS4_JS3_bEvEEvRS5_PT_DpOT0_, symObjAddr: 0x340EC, symBinAddr: 0x100036F8C, symSize: 0x3C }
  - { offsetInCU: 0x275EF, offset: 0x2F2A6, size: 0x8, addend: 0x0, symName: __ZNSt3__16vectorINS_4pairI8rangeNumbEENS_9allocatorIS3_EEE21_ConstructTransactionD1B7v160006Ev, symObjAddr: 0x34128, symBinAddr: 0x100036FC8, symSize: 0x2C }
  - { offsetInCU: 0x27617, offset: 0x2F2CE, size: 0x8, addend: 0x0, symName: __ZNSt3__16vectorINS_4pairI8rangeNumbEENS_9allocatorIS3_EEE21_ConstructTransactionC2B7v160006ERS6_m, symObjAddr: 0x34154, symBinAddr: 0x100036FF4, symSize: 0x1D8 }
  - { offsetInCU: 0x2765D, offset: 0x2F314, size: 0x8, addend: 0x0, symName: __ZNKSt3__16vectorINS_4pairI8rangeNumbEENS_9allocatorIS3_EEE19__annotate_increaseB7v160006Em, symObjAddr: 0x3432C, symBinAddr: 0x1000371CC, symSize: 0xF8 }
  - { offsetInCU: 0x27690, offset: 0x2F347, size: 0x8, addend: 0x0, symName: __ZNSt3__19allocatorINS_4pairI8rangeNumbEEE9constructB7v160006IS3_JS2_bEEEvPT_DpOT0_, symObjAddr: 0x34424, symBinAddr: 0x1000372C4, symSize: 0x38 }
  - { offsetInCU: 0x276F8, offset: 0x2F3AF, size: 0x8, addend: 0x0, symName: __ZNSt3__14pairI8rangeNumbEC1B7v160006IS1_bLPv0EEEOT_OT0_, symObjAddr: 0x3445C, symBinAddr: 0x1000372FC, symSize: 0x3C }
  - { offsetInCU: 0x27755, offset: 0x2F40C, size: 0x8, addend: 0x0, symName: __ZNSt3__14pairI8rangeNumbEC2B7v160006IS1_bLPv0EEEOT_OT0_, symObjAddr: 0x34498, symBinAddr: 0x100037338, symSize: 0x120 }
  - { offsetInCU: 0x277B2, offset: 0x2F469, size: 0x8, addend: 0x0, symName: __ZNSt3__16vectorINS_4pairI8rangeNumbEENS_9allocatorIS3_EEE21_ConstructTransactionD2B7v160006Ev, symObjAddr: 0x345B8, symBinAddr: 0x100037458, symSize: 0x278 }
  - { offsetInCU: 0x277DA, offset: 0x2F491, size: 0x8, addend: 0x0, symName: __ZNKSt3__16vectorINS_4pairI8rangeNumbEENS_9allocatorIS3_EEE17__annotate_shrinkB7v160006Em, symObjAddr: 0x34830, symBinAddr: 0x1000376D0, symSize: 0xE4 }
  - { offsetInCU: 0x2780D, offset: 0x2F4C4, size: 0x8, addend: 0x0, symName: __ZNKSt3__16vectorINS_4pairI8rangeNumbEENS_9allocatorIS3_EEE11__recommendB7v160006Em, symObjAddr: 0x34914, symBinAddr: 0x1000377B4, symSize: 0x384 }
  - { offsetInCU: 0x27867, offset: 0x2F51E, size: 0x8, addend: 0x0, symName: __ZNSt3__114__split_bufferINS_4pairI8rangeNumbEERNS_9allocatorIS3_EEEC1EmmS6_, symObjAddr: 0x34C98, symBinAddr: 0x100037B38, symSize: 0x44 }
  - { offsetInCU: 0x278BC, offset: 0x2F573, size: 0x8, addend: 0x0, symName: __ZNSt3__114__split_bufferINS_4pairI8rangeNumbEERNS_9allocatorIS3_EEED1Ev, symObjAddr: 0x35250, symBinAddr: 0x1000380F0, symSize: 0x2C }
  - { offsetInCU: 0x278E7, offset: 0x2F59E, size: 0x8, addend: 0x0, symName: __ZNKSt3__16vectorINS_4pairI8rangeNumbEENS_9allocatorIS3_EEE8max_sizeEv, symObjAddr: 0x3527C, symBinAddr: 0x10003811C, symSize: 0x2FC }
  - { offsetInCU: 0x2790E, offset: 0x2F5C5, size: 0x8, addend: 0x0, symName: __ZNKSt3__16vectorINS_4pairI8rangeNumbEENS_9allocatorIS3_EEE20__throw_length_errorB7v160006Ev, symObjAddr: 0x35578, symBinAddr: 0x100038418, symSize: 0x20 }
  - { offsetInCU: 0x2793C, offset: 0x2F5F3, size: 0x8, addend: 0x0, symName: __ZNSt3__116allocator_traitsINS_9allocatorINS_4pairI8rangeNumbEEEEE8max_sizeB7v160006IS5_vEEmRKS5_, symObjAddr: 0x35598, symBinAddr: 0x100038438, symSize: 0x24 }
  - { offsetInCU: 0x2796A, offset: 0x2F621, size: 0x8, addend: 0x0, symName: __ZNKSt3__16vectorINS_4pairI8rangeNumbEENS_9allocatorIS3_EEE7__allocB7v160006Ev, symObjAddr: 0x355BC, symBinAddr: 0x10003845C, symSize: 0x28 }
  - { offsetInCU: 0x2798E, offset: 0x2F645, size: 0x8, addend: 0x0, symName: __ZNKSt3__19allocatorINS_4pairI8rangeNumbEEE8max_sizeB7v160006Ev, symObjAddr: 0x355E4, symBinAddr: 0x100038484, symSize: 0x18 }
  - { offsetInCU: 0x279B2, offset: 0x2F669, size: 0x8, addend: 0x0, symName: __ZNKSt3__117__compressed_pairIPNS_4pairI8rangeNumbEENS_9allocatorIS3_EEE6secondB7v160006Ev, symObjAddr: 0x355FC, symBinAddr: 0x10003849C, symSize: 0x24 }
  - { offsetInCU: 0x279D6, offset: 0x2F68D, size: 0x8, addend: 0x0, symName: __ZNKSt3__122__compressed_pair_elemINS_9allocatorINS_4pairI8rangeNumbEEEELi1ELb1EE5__getB7v160006Ev, symObjAddr: 0x35620, symBinAddr: 0x1000384C0, symSize: 0x14 }
  - { offsetInCU: 0x279FA, offset: 0x2F6B1, size: 0x8, addend: 0x0, symName: __ZNSt3__114__split_bufferINS_4pairI8rangeNumbEERNS_9allocatorIS3_EEEC2EmmS6_, symObjAddr: 0x35634, symBinAddr: 0x1000384D4, symSize: 0x530 }
  - { offsetInCU: 0x27A75, offset: 0x2F72C, size: 0x8, addend: 0x0, symName: __ZNSt3__117__compressed_pairIPNS_4pairI8rangeNumbEERNS_9allocatorIS3_EEEC1B7v160006IDnS7_EEOT_OT0_, symObjAddr: 0x35B64, symBinAddr: 0x100038A04, symSize: 0x3C }
  - { offsetInCU: 0x27ACB, offset: 0x2F782, size: 0x8, addend: 0x0, symName: __ZNSt3__114__split_bufferINS_4pairI8rangeNumbEERNS_9allocatorIS3_EEE7__allocB7v160006Ev, symObjAddr: 0x35E2C, symBinAddr: 0x100038CCC, symSize: 0x28 }
  - { offsetInCU: 0x27AEF, offset: 0x2F7A6, size: 0x8, addend: 0x0, symName: __ZNSt3__114__split_bufferINS_4pairI8rangeNumbEERNS_9allocatorIS3_EEE9__end_capB7v160006Ev, symObjAddr: 0x35E54, symBinAddr: 0x100038CF4, symSize: 0x28 }
  - { offsetInCU: 0x27B13, offset: 0x2F7CA, size: 0x8, addend: 0x0, symName: __ZNSt3__117__compressed_pairIPNS_4pairI8rangeNumbEERNS_9allocatorIS3_EEEC2B7v160006IDnS7_EEOT_OT0_, symObjAddr: 0x35E7C, symBinAddr: 0x100038D1C, symSize: 0x48 }
  - { offsetInCU: 0x27B69, offset: 0x2F820, size: 0x8, addend: 0x0, symName: __ZNSt3__122__compressed_pair_elemIRNS_9allocatorINS_4pairI8rangeNumbEEEELi1ELb0EEC2B7v160006IS6_vEEOT_, symObjAddr: 0x35EC4, symBinAddr: 0x100038D64, symSize: 0x70 }
  - { offsetInCU: 0x27BAA, offset: 0x2F861, size: 0x8, addend: 0x0, symName: __ZNSt3__19allocatorINS_4pairI8rangeNumbEEE8allocateB7v160006Em, symObjAddr: 0x35F34, symBinAddr: 0x100038DD4, symSize: 0x60 }
  - { offsetInCU: 0x27BDC, offset: 0x2F893, size: 0x8, addend: 0x0, symName: __ZNSt3__117__compressed_pairIPNS_4pairI8rangeNumbEERNS_9allocatorIS3_EEE6secondB7v160006Ev, symObjAddr: 0x35F94, symBinAddr: 0x100038E34, symSize: 0x28 }
  - { offsetInCU: 0x27C00, offset: 0x2F8B7, size: 0x8, addend: 0x0, symName: __ZNSt3__122__compressed_pair_elemIRNS_9allocatorINS_4pairI8rangeNumbEEEELi1ELb0EE5__getB7v160006Ev, symObjAddr: 0x35FBC, symBinAddr: 0x100038E5C, symSize: 0x60 }
  - { offsetInCU: 0x27C24, offset: 0x2F8DB, size: 0x8, addend: 0x0, symName: __ZNSt3__117__compressed_pairIPNS_4pairI8rangeNumbEERNS_9allocatorIS3_EEE5firstB7v160006Ev, symObjAddr: 0x3601C, symBinAddr: 0x100038EBC, symSize: 0x24 }
  - { offsetInCU: 0x27C48, offset: 0x2F8FF, size: 0x8, addend: 0x0, symName: __ZNSt3__116reverse_iteratorIPNS_4pairI8rangeNumbEEEC1B7v160006ES4_, symObjAddr: 0x36584, symBinAddr: 0x100039424, symSize: 0x34 }
  - { offsetInCU: 0x27C7E, offset: 0x2F935, size: 0x8, addend: 0x0, symName: __ZNKSt3__116reverse_iteratorIPNS_4pairI8rangeNumbEEE4baseB7v160006Ev, symObjAddr: 0x365B8, symBinAddr: 0x100039458, symSize: 0x64 }
  - { offsetInCU: 0x27CA2, offset: 0x2F959, size: 0x8, addend: 0x0, symName: __ZNKSt3__16vectorINS_4pairI8rangeNumbEENS_9allocatorIS3_EEE14__annotate_newB7v160006Em, symObjAddr: 0x36750, symBinAddr: 0x1000395F0, symSize: 0xDC }
  - { offsetInCU: 0x27CD5, offset: 0x2F98C, size: 0x8, addend: 0x0, symName: __ZNSt3__129_AllocatorDestroyRangeReverseINS_9allocatorINS_4pairI8rangeNumbEEEENS_16reverse_iteratorIPS4_EEEC1B7v160006ERS5_RS8_SB_, symObjAddr: 0x36A34, symBinAddr: 0x1000398D4, symSize: 0x44 }
  - { offsetInCU: 0x27D2A, offset: 0x2F9E1, size: 0x8, addend: 0x0, symName: __ZNSt3__116allocator_traitsINS_9allocatorINS_4pairI8rangeNumbEEEEE9constructB7v160006IS4_JS4_EvEEvRS5_PT_DpOT0_, symObjAddr: 0x36AC0, symBinAddr: 0x100039960, symSize: 0x34 }
  - { offsetInCU: 0x27D82, offset: 0x2FA39, size: 0x8, addend: 0x0, symName: __ZNKSt3__116reverse_iteratorIPNS_4pairI8rangeNumbEEEdeB7v160006Ev, symObjAddr: 0x36B18, symBinAddr: 0x1000399B8, symSize: 0x74 }
  - { offsetInCU: 0x27DB5, offset: 0x2FA6C, size: 0x8, addend: 0x0, symName: __ZNSt3__116reverse_iteratorIPNS_4pairI8rangeNumbEEEppB7v160006Ev, symObjAddr: 0x36B8C, symBinAddr: 0x100039A2C, symSize: 0x6C }
  - { offsetInCU: 0x27DD9, offset: 0x2FA90, size: 0x8, addend: 0x0, symName: __ZNSt3__128__exception_guard_exceptionsINS_29_AllocatorDestroyRangeReverseINS_9allocatorINS_4pairI8rangeNumbEEEENS_16reverse_iteratorIPS5_EEEEE10__completeB7v160006Ev, symObjAddr: 0x36BF8, symBinAddr: 0x100039A98, symSize: 0x8C }
  - { offsetInCU: 0x27DFD, offset: 0x2FAB4, size: 0x8, addend: 0x0, symName: __ZNSt3__128__exception_guard_exceptionsINS_29_AllocatorDestroyRangeReverseINS_9allocatorINS_4pairI8rangeNumbEEEENS_16reverse_iteratorIPS5_EEEEED1B7v160006Ev, symObjAddr: 0x36C84, symBinAddr: 0x100039B24, symSize: 0x2C }
  - { offsetInCU: 0x27E25, offset: 0x2FADC, size: 0x8, addend: 0x0, symName: __ZNSt3__128__exception_guard_exceptionsINS_29_AllocatorDestroyRangeReverseINS_9allocatorINS_4pairI8rangeNumbEEEENS_16reverse_iteratorIPS5_EEEEEC1B7v160006ESA_, symObjAddr: 0x36CB0, symBinAddr: 0x100039B50, symSize: 0x34 }
  - { offsetInCU: 0x27E5C, offset: 0x2FB13, size: 0x8, addend: 0x0, symName: __ZNSt3__128__exception_guard_exceptionsINS_29_AllocatorDestroyRangeReverseINS_9allocatorINS_4pairI8rangeNumbEEEENS_16reverse_iteratorIPS5_EEEEEC2B7v160006ESA_, symObjAddr: 0x36CE4, symBinAddr: 0x100039B84, symSize: 0xA4 }
  - { offsetInCU: 0x27E93, offset: 0x2FB4A, size: 0x8, addend: 0x0, symName: __ZNSt3__129_AllocatorDestroyRangeReverseINS_9allocatorINS_4pairI8rangeNumbEEEENS_16reverse_iteratorIPS4_EEEC2B7v160006ERS5_RS8_SB_, symObjAddr: 0x36D88, symBinAddr: 0x100039C28, symSize: 0x104 }
  - { offsetInCU: 0x27EE8, offset: 0x2FB9F, size: 0x8, addend: 0x0, symName: __ZNSt3__19allocatorINS_4pairI8rangeNumbEEE9constructB7v160006IS3_JS3_EEEvPT_DpOT0_, symObjAddr: 0x36E8C, symBinAddr: 0x100039D2C, symSize: 0x34 }
  - { offsetInCU: 0x27F42, offset: 0x2FBF9, size: 0x8, addend: 0x0, symName: __ZNSt3__119__to_address_helperINS_16reverse_iteratorIPNS_4pairI8rangeNumbEEEEvE6__callB7v160006ERKS6_, symObjAddr: 0x36EC0, symBinAddr: 0x100039D60, symSize: 0x44 }
  - { offsetInCU: 0x27F64, offset: 0x2FC1B, size: 0x8, addend: 0x0, symName: __ZNKSt3__116reverse_iteratorIPNS_4pairI8rangeNumbEEEptB7v160006Ev, symObjAddr: 0x36F04, symBinAddr: 0x100039DA4, symSize: 0x24 }
  - { offsetInCU: 0x27F88, offset: 0x2FC3F, size: 0x8, addend: 0x0, symName: __ZNSt3__128__exception_guard_exceptionsINS_29_AllocatorDestroyRangeReverseINS_9allocatorINS_4pairI8rangeNumbEEEENS_16reverse_iteratorIPS5_EEEEED2B7v160006Ev, symObjAddr: 0x36F28, symBinAddr: 0x100039DC8, symSize: 0xBC }
  - { offsetInCU: 0x27FB0, offset: 0x2FC67, size: 0x8, addend: 0x0, symName: __ZNKSt3__129_AllocatorDestroyRangeReverseINS_9allocatorINS_4pairI8rangeNumbEEEENS_16reverse_iteratorIPS4_EEEclB7v160006Ev, symObjAddr: 0x36FE4, symBinAddr: 0x100039E84, symSize: 0x3A8 }
  - { offsetInCU: 0x27FD5, offset: 0x2FC8C, size: 0x8, addend: 0x0, symName: __ZNSt3__116reverse_iteratorINS0_IPNS_4pairI8rangeNumbEEEEEC1B7v160006ES5_, symObjAddr: 0x373FC, symBinAddr: 0x10003A29C, symSize: 0x248 }
  - { offsetInCU: 0x28010, offset: 0x2FCC7, size: 0x8, addend: 0x0, symName: __ZNSt3__116reverse_iteratorINS0_IPNS_4pairI8rangeNumbEEEEEppB7v160006Ev, symObjAddr: 0x37934, symBinAddr: 0x10003A7D4, symSize: 0x30 }
  - { offsetInCU: 0x28034, offset: 0x2FCEB, size: 0x8, addend: 0x0, symName: __ZNKSt3__116reverse_iteratorINS0_IPNS_4pairI8rangeNumbEEEEE4baseB7v160006Ev, symObjAddr: 0x37964, symBinAddr: 0x10003A804, symSize: 0x20C }
  - { offsetInCU: 0x2805E, offset: 0x2FD15, size: 0x8, addend: 0x0, symName: __ZNSt3__119__to_address_helperINS_16reverse_iteratorINS1_IPNS_4pairI8rangeNumbEEEEEEvE6__callB7v160006ERKS7_, symObjAddr: 0x37B70, symBinAddr: 0x10003AA10, symSize: 0x44 }
  - { offsetInCU: 0x28080, offset: 0x2FD37, size: 0x8, addend: 0x0, symName: __ZNKSt3__116reverse_iteratorINS0_IPNS_4pairI8rangeNumbEEEEEptB7v160006Ev, symObjAddr: 0x37BB4, symBinAddr: 0x10003AA54, symSize: 0x24 }
  - { offsetInCU: 0x280A4, offset: 0x2FD5B, size: 0x8, addend: 0x0, symName: __ZNKSt3__116reverse_iteratorINS0_IPNS_4pairI8rangeNumbEEEEEdeB7v160006Ev, symObjAddr: 0x37BD8, symBinAddr: 0x10003AA78, symSize: 0x1EC }
  - { offsetInCU: 0x280DC, offset: 0x2FD93, size: 0x8, addend: 0x0, symName: __ZNSt3__116reverse_iteratorIPNS_4pairI8rangeNumbEEEmmB7v160006Ev, symObjAddr: 0x37DC4, symBinAddr: 0x10003AC64, symSize: 0x6C }
  - { offsetInCU: 0x28100, offset: 0x2FDB7, size: 0x8, addend: 0x0, symName: __ZNSt3__116reverse_iteratorINS0_IPNS_4pairI8rangeNumbEEEEEC2B7v160006ES5_, symObjAddr: 0x37E30, symBinAddr: 0x10003ACD0, symSize: 0x22C }
  - { offsetInCU: 0x2813B, offset: 0x2FDF2, size: 0x8, addend: 0x0, symName: __ZNSt3__116reverse_iteratorIPNS_4pairI8rangeNumbEEEC2B7v160006ES4_, symObjAddr: 0x3805C, symBinAddr: 0x10003AEFC, symSize: 0xB8 }
  - { offsetInCU: 0x28171, offset: 0x2FE28, size: 0x8, addend: 0x0, symName: __ZNSt3__114__split_bufferINS_4pairI8rangeNumbEERNS_9allocatorIS3_EEED2Ev, symObjAddr: 0x38114, symBinAddr: 0x10003AFB4, symSize: 0x104 }
  - { offsetInCU: 0x2819C, offset: 0x2FE53, size: 0x8, addend: 0x0, symName: __ZNSt3__114__split_bufferINS_4pairI8rangeNumbEERNS_9allocatorIS3_EEE5clearB7v160006Ev, symObjAddr: 0x38218, symBinAddr: 0x10003B0B8, symSize: 0x68 }
  - { offsetInCU: 0x281C0, offset: 0x2FE77, size: 0x8, addend: 0x0, symName: __ZNKSt3__114__split_bufferINS_4pairI8rangeNumbEERNS_9allocatorIS3_EEE8capacityB7v160006Ev, symObjAddr: 0x38280, symBinAddr: 0x10003B120, symSize: 0xBC }
  - { offsetInCU: 0x281E4, offset: 0x2FE9B, size: 0x8, addend: 0x0, symName: __ZNSt3__114__split_bufferINS_4pairI8rangeNumbEERNS_9allocatorIS3_EEE17__destruct_at_endB7v160006EPS3_, symObjAddr: 0x3833C, symBinAddr: 0x10003B1DC, symSize: 0x2C }
  - { offsetInCU: 0x28216, offset: 0x2FECD, size: 0x8, addend: 0x0, symName: __ZNSt3__114__split_bufferINS_4pairI8rangeNumbEERNS_9allocatorIS3_EEE17__destruct_at_endB7v160006EPS3_NS_17integral_constantIbLb0EEE, symObjAddr: 0x38368, symBinAddr: 0x10003B208, symSize: 0x10C }
  - { offsetInCU: 0x28254, offset: 0x2FF0B, size: 0x8, addend: 0x0, symName: __ZNKSt3__114__split_bufferINS_4pairI8rangeNumbEERNS_9allocatorIS3_EEE9__end_capB7v160006Ev, symObjAddr: 0x38474, symBinAddr: 0x10003B314, symSize: 0x28 }
  - { offsetInCU: 0x28278, offset: 0x2FF2F, size: 0x8, addend: 0x0, symName: __ZNKSt3__117__compressed_pairIPNS_4pairI8rangeNumbEERNS_9allocatorIS3_EEE5firstB7v160006Ev, symObjAddr: 0x3849C, symBinAddr: 0x10003B33C, symSize: 0x24 }
  - { offsetInCU: 0x2829C, offset: 0x2FF53, size: 0x8, addend: 0x0, symName: __ZNSt3__16vectorINS_4pairI8rangeNumbEENS_9allocatorIS3_EEE17__destruct_at_endB7v160006EPS3_, symObjAddr: 0x384C0, symBinAddr: 0x10003B360, symSize: 0x6C }
  - { offsetInCU: 0x282DE, offset: 0x2FF95, size: 0x8, addend: 0x0, symName: __ZNSt3__16vectorINS_4pairI8rangeNumbEENS_9allocatorIS3_EEE27__invalidate_iterators_pastB7v160006EPS3_, symObjAddr: 0x3852C, symBinAddr: 0x10003B3CC, symSize: 0x14 }
  - { offsetInCU: 0x28314, offset: 0x2FFCB, size: 0x8, addend: 0x0, symName: __ZNSt3__16vectorINS_4pairI8rangeNumbEENS_9allocatorIS3_EEE22__construct_one_at_endB7v160006IJS2_RKbEEEvDpOT_, symObjAddr: 0x38540, symBinAddr: 0x10003B3E0, symSize: 0x374 }
  - { offsetInCU: 0x2837D, offset: 0x30034, size: 0x8, addend: 0x0, symName: __ZNSt3__16vectorINS_4pairI8rangeNumbEENS_9allocatorIS3_EEE24__emplace_back_slow_pathIJS2_RKbEEEvDpOT_, symObjAddr: 0x388B4, symBinAddr: 0x10003B754, symSize: 0x3C8 }
  - { offsetInCU: 0x283F8, offset: 0x300AF, size: 0x8, addend: 0x0, symName: __ZNSt3__116allocator_traitsINS_9allocatorINS_4pairI8rangeNumbEEEEE9constructB7v160006IS4_JS3_RKbEvEEvRS5_PT_DpOT0_, symObjAddr: 0x38C7C, symBinAddr: 0x10003BB1C, symSize: 0x3C }
  - { offsetInCU: 0x28464, offset: 0x3011B, size: 0x8, addend: 0x0, symName: __ZNSt3__19allocatorINS_4pairI8rangeNumbEEE9constructB7v160006IS3_JS2_RKbEEEvPT_DpOT0_, symObjAddr: 0x38CB8, symBinAddr: 0x10003BB58, symSize: 0x38 }
  - { offsetInCU: 0x284CC, offset: 0x30183, size: 0x8, addend: 0x0, symName: __ZNSt3__14pairI8rangeNumbEC1B7v160006IS1_RKbLPv0EEEOT_OT0_, symObjAddr: 0x38CF0, symBinAddr: 0x10003BB90, symSize: 0x3C }
  - { offsetInCU: 0x28529, offset: 0x301E0, size: 0x8, addend: 0x0, symName: __ZNSt3__14pairI8rangeNumbEC2B7v160006IS1_RKbLPv0EEEOT_OT0_, symObjAddr: 0x38D2C, symBinAddr: 0x10003BBCC, symSize: 0x120 }
  - { offsetInCU: 0x28586, offset: 0x3023D, size: 0x8, addend: 0x0, symName: __ZNSt3__16vectorINS_4pairI8rangeNumbEENS_9allocatorIS3_EEE11__make_iterB7v160006EPS3_, symObjAddr: 0x38E74, symBinAddr: 0x10003BD14, symSize: 0x200 }
  - { offsetInCU: 0x285BB, offset: 0x30272, size: 0x8, addend: 0x0, symName: __ZNSt3__111__wrap_iterIPNS_4pairI8rangeNumbEEEC1B7v160006EPKvS4_, symObjAddr: 0x39074, symBinAddr: 0x10003BF14, symSize: 0x3C }
  - { offsetInCU: 0x285FF, offset: 0x302B6, size: 0x8, addend: 0x0, symName: __ZNSt3__111__wrap_iterIPNS_4pairI8rangeNumbEEEC2B7v160006EPKvS4_, symObjAddr: 0x390B0, symBinAddr: 0x10003BF50, symSize: 0x74 }
  - { offsetInCU: 0x28643, offset: 0x302FA, size: 0x8, addend: 0x0, symName: __ZNSt3__115basic_stringbufIcNS_11char_traitsIcEENS_9allocatorIcEEEC1B7v160006Ej, symObjAddr: 0x39124, symBinAddr: 0x10003BFC4, symSize: 0x34 }
  - { offsetInCU: 0x28679, offset: 0x30330, size: 0x8, addend: 0x0, symName: __ZNSt3__115basic_stringbufIcNS_11char_traitsIcEENS_9allocatorIcEEEC2B7v160006Ej, symObjAddr: 0x39158, symBinAddr: 0x10003BFF8, symSize: 0x138 }
  - { offsetInCU: 0x286AF, offset: 0x30366, size: 0x8, addend: 0x0, symName: __ZNKSt3__15ctypeIcE2isB7v160006Ejc, symObjAddr: 0x392F4, symBinAddr: 0x10003C130, symSize: 0x120 }
  - { offsetInCU: 0x286F0, offset: 0x303A7, size: 0x8, addend: 0x0, symName: __Z7isasciii, symObjAddr: 0x394CC, symBinAddr: 0x10003C250, symSize: 0x24 }
  - { offsetInCU: 0x3B, offset: 0x308C7, size: 0x8, addend: 0x0, symName: _.str, symObjAddr: 0x2F880, symBinAddr: 0x100059700, symSize: 0x0 }
  - { offsetInCU: 0x6B, offset: 0x308F7, size: 0x8, addend: 0x0, symName: _.str.1, symObjAddr: 0x2F8A0, symBinAddr: 0x100059720, symSize: 0x0 }
  - { offsetInCU: 0x7C, offset: 0x30908, size: 0x8, addend: 0x0, symName: _.str.2, symObjAddr: 0x2F8C0, symBinAddr: 0x100059740, symSize: 0x0 }
  - { offsetInCU: 0x99, offset: 0x30925, size: 0x8, addend: 0x0, symName: _.str.3, symObjAddr: 0x2F8E0, symBinAddr: 0x100059760, symSize: 0x0 }
  - { offsetInCU: 0xB6, offset: 0x30942, size: 0x8, addend: 0x0, symName: _.str.4, symObjAddr: 0x2F900, symBinAddr: 0x100059780, symSize: 0x0 }
  - { offsetInCU: 0xC7, offset: 0x30953, size: 0x8, addend: 0x0, symName: _.str.5, symObjAddr: 0x2F920, symBinAddr: 0x1000597A0, symSize: 0x0 }
  - { offsetInCU: 0xD8, offset: 0x30964, size: 0x8, addend: 0x0, symName: _.str.6, symObjAddr: 0x2F940, symBinAddr: 0x1000597C0, symSize: 0x0 }
  - { offsetInCU: 0xE9, offset: 0x30975, size: 0x8, addend: 0x0, symName: _.str.7, symObjAddr: 0x2F960, symBinAddr: 0x1000597E0, symSize: 0x0 }
  - { offsetInCU: 0xFA, offset: 0x30986, size: 0x8, addend: 0x0, symName: _.str.8, symObjAddr: 0x2F980, symBinAddr: 0x100059800, symSize: 0x0 }
  - { offsetInCU: 0x10B, offset: 0x30997, size: 0x8, addend: 0x0, symName: _.str.9, symObjAddr: 0x2FA40, symBinAddr: 0x10005BF80, symSize: 0x0 }
  - { offsetInCU: 0x128, offset: 0x309B4, size: 0x8, addend: 0x0, symName: _.str.10, symObjAddr: 0x2F9A0, symBinAddr: 0x100059820, symSize: 0x0 }
  - { offsetInCU: 0x146, offset: 0x309D2, size: 0x8, addend: 0x0, symName: _.str.11, symObjAddr: 0x2F9C0, symBinAddr: 0x100059840, symSize: 0x0 }
  - { offsetInCU: 0x158, offset: 0x309E4, size: 0x8, addend: 0x0, symName: _.str.12, symObjAddr: 0x2F9E0, symBinAddr: 0x100059860, symSize: 0x0 }
  - { offsetInCU: 0x16A, offset: 0x309F6, size: 0x8, addend: 0x0, symName: _.str.13, symObjAddr: 0x2FA00, symBinAddr: 0x100059880, symSize: 0x0 }
  - { offsetInCU: 0x17C, offset: 0x30A08, size: 0x8, addend: 0x0, symName: _.str.14, symObjAddr: 0x2FA20, symBinAddr: 0x1000598A0, symSize: 0x0 }
  - { offsetInCU: 0xCEFB, offset: 0x3D787, size: 0x8, addend: 0x0, symName: __ZNSt3__111__introsortINS_17_ClassicAlgPolicyERNS_6__lessINS_4pairI8rangeNumbEES5_EEPS5_EEvT1_S9_T0_NS_15iterator_traitsIS9_E15difference_typeE, symObjAddr: 0x1B30C, symBinAddr: 0x10004ECA0, symSize: 0x1EA0 }
  - { offsetInCU: 0xD070, offset: 0x3D8FC, size: 0x8, addend: 0x0, symName: __ZNSt3__118__insertion_sort_3B7v160006INS_17_ClassicAlgPolicyERNS_6__lessINS_4pairI8rangeNumbEES5_EEPS5_EEvT1_S9_T0_, symObjAddr: 0x1D390, symBinAddr: 0x100050D24, symSize: 0x5A4 }
  - { offsetInCU: 0xD14E, offset: 0x3D9DA, size: 0x8, addend: 0x0, symName: __ZNSt3__111__sift_downB7v160006INS_17_ClassicAlgPolicyERNS_6__lessINS_4pairI8rangeNumbEES5_EEPS5_EEvT1_OT0_NS_15iterator_traitsIS9_E15difference_typeES9_, symObjAddr: 0x202B8, symBinAddr: 0x100053C4C, symSize: 0x7D0 }
  - { offsetInCU: 0xD20F, offset: 0x3DA9B, size: 0x8, addend: 0x0, symName: __ZNSt3__117__floyd_sift_downB7v160006INS_17_ClassicAlgPolicyERNS_6__lessINS_4pairI8rangeNumbEES5_EEPS5_EET1_S9_OT0_NS_15iterator_traitsIS9_E15difference_typeE, symObjAddr: 0x20FA8, symBinAddr: 0x10005493C, symSize: 0x3D4 }
  - { offsetInCU: 0xD2B3, offset: 0x3DB3F, size: 0x8, addend: 0x0, symName: __ZNSt3__127__insertion_sort_incompleteIRNS_6__lessINS_4pairI8rangeNumbEES4_EEPS4_EEbT0_S8_T_, symObjAddr: 0x1E088, symBinAddr: 0x100051A1C, symSize: 0xC24 }
  - { offsetInCU: 0xEC2F, offset: 0x3F4BB, size: 0x8, addend: 0x0, symName: __ZNSt3__1neB7v160006ERKNS_14__map_iteratorINS_15__tree_iteratorINS_12__value_typeINS_12basic_stringIcNS_11char_traitsIcEENS_9allocatorIcEEEEiEEPNS_11__tree_nodeIS9_PvEElEEEESH_, symObjAddr: 0x1430, symBinAddr: 0x10003D708, symSize: 0x30 }
  - { offsetInCU: 0xEC6C, offset: 0x3F4F8, size: 0x8, addend: 0x0, symName: __ZNSt3__13getB7v160006ILm0EKNS_12basic_stringIcNS_11char_traitsIcEENS_9allocatorIcEEEEiEERKNS_13tuple_elementIXT_ENS_4pairIT0_T1_EEE4typeERKSC_, symObjAddr: 0x1488, symBinAddr: 0x10003D760, symSize: 0x24 }
  - { offsetInCU: 0xECB6, offset: 0x3F542, size: 0x8, addend: 0x0, symName: __ZNSt3__13getB7v160006ILm1EKNS_12basic_stringIcNS_11char_traitsIcEENS_9allocatorIcEEEEiEERKNS_13tuple_elementIXT_ENS_4pairIT0_T1_EEE4typeERKSC_, symObjAddr: 0x14AC, symBinAddr: 0x10003D784, symSize: 0x24 }
  - { offsetInCU: 0x10299, offset: 0x40B25, size: 0x8, addend: 0x0, symName: __ZNSt3__14sortB7v160006INS_11__wrap_iterIPNS_4pairI8rangeNumbEEEEEEvT_S7_, symObjAddr: 0x7490, symBinAddr: 0x1000431C8, symSize: 0x348 }
  - { offsetInCU: 0x10600, offset: 0x40E8C, size: 0x8, addend: 0x0, symName: __ZNSt3__1lsB7v160006IcNS_11char_traitsIcEENS_9allocatorIcEEEERNS_13basic_ostreamIT_T0_EES9_RKNS_12basic_stringIS6_S7_T1_EE, symObjAddr: 0xC32C, symBinAddr: 0x100046C6C, symSize: 0x4C }
  - { offsetInCU: 0x106D2, offset: 0x40F5E, size: 0x8, addend: 0x0, symName: __ZNSt3__115__debug_db_swapB7v160006INS_12basic_stringIcNS_11char_traitsIcEENS_9allocatorIcEEEEEEvPT_S8_, symObjAddr: 0xCB38, symBinAddr: 0x100046DE4, symSize: 0x14 }
  - { offsetInCU: 0x10736, offset: 0x40FC2, size: 0x8, addend: 0x0, symName: __ZNSt3__1ltB7v160006IcNS_11char_traitsIcEENS_9allocatorIcEEEEbRKNS_12basic_stringIT_T0_T1_EESB_, symObjAddr: 0xF140, symBinAddr: 0x1000487D4, symSize: 0x38 }
  - { offsetInCU: 0x107B3, offset: 0x4103F, size: 0x8, addend: 0x0, symName: __ZNSt3__17launderB7v160006IKNS_4pairIKNS_12basic_stringIcNS_11char_traitsIcEENS_9allocatorIcEEEEiEEEEPT_SC_, symObjAddr: 0x10018, symBinAddr: 0x100049330, symSize: 0x24 }
  - { offsetInCU: 0x107EA, offset: 0x41076, size: 0x8, addend: 0x0, symName: __ZNSt3__19__launderB7v160006IKNS_4pairIKNS_12basic_stringIcNS_11char_traitsIcEENS_9allocatorIcEEEEiEEEEPT_SC_, symObjAddr: 0x1003C, symBinAddr: 0x100049354, symSize: 0x14 }
  - { offsetInCU: 0x10840, offset: 0x410CC, size: 0x8, addend: 0x0, symName: __ZNSt3__127__tree_balance_after_insertB7v160006IPNS_16__tree_node_baseIPvEEEEvT_S5_, symObjAddr: 0x10AF0, symBinAddr: 0x100049BF4, symSize: 0x960 }
  - { offsetInCU: 0x108B6, offset: 0x41142, size: 0x8, addend: 0x0, symName: __ZNSt3__120__tree_is_left_childB7v160006IPNS_16__tree_node_baseIPvEEEEbT_, symObjAddr: 0x114DC, symBinAddr: 0x10004A5E0, symSize: 0xB8 }
  - { offsetInCU: 0x108EB, offset: 0x41177, size: 0x8, addend: 0x0, symName: __ZNSt3__118__tree_left_rotateB7v160006IPNS_16__tree_node_baseIPvEEEEvT_, symObjAddr: 0x11594, symBinAddr: 0x10004A698, symSize: 0x3A8 }
  - { offsetInCU: 0x1092E, offset: 0x411BA, size: 0x8, addend: 0x0, symName: __ZNSt3__119__tree_right_rotateB7v160006IPNS_16__tree_node_baseIPvEEEEvT_, symObjAddr: 0x1193C, symBinAddr: 0x10004AA40, symSize: 0x384 }
  - { offsetInCU: 0x10971, offset: 0x411FD, size: 0x8, addend: 0x0, symName: __ZNSt3__1neB7v160006ERKNS_15__tree_iteratorINS_12__value_typeINS_12basic_stringIcNS_11char_traitsIcEENS_9allocatorIcEEEEiEEPNS_11__tree_nodeIS8_PvEElEESF_, symObjAddr: 0x12EBC, symBinAddr: 0x10004BEC0, symSize: 0x34 }
  - { offsetInCU: 0x109AE, offset: 0x4123A, size: 0x8, addend: 0x0, symName: __ZNSt3__1eqB7v160006ERKNS_15__tree_iteratorINS_12__value_typeINS_12basic_stringIcNS_11char_traitsIcEENS_9allocatorIcEEEEiEEPNS_11__tree_nodeIS8_PvEElEESF_, symObjAddr: 0x12EF0, symBinAddr: 0x10004BEF4, symSize: 0xB8 }
  - { offsetInCU: 0x109EB, offset: 0x41277, size: 0x8, addend: 0x0, symName: __ZNSt3__116__tree_next_iterB7v160006IPNS_15__tree_end_nodeIPNS_16__tree_node_baseIPvEEEES5_EET_T0_, symObjAddr: 0x13050, symBinAddr: 0x10004C054, symSize: 0x134 }
  - { offsetInCU: 0x10A29, offset: 0x412B5, size: 0x8, addend: 0x0, symName: __ZNSt3__110__tree_minB7v160006IPNS_16__tree_node_baseIPvEEEET_S5_, symObjAddr: 0x13184, symBinAddr: 0x10004C188, symSize: 0xC4 }
  - { offsetInCU: 0x10A91, offset: 0x4131D, size: 0x8, addend: 0x0, symName: __ZNSt3__18distanceB7v160006INS_11__wrap_iterIPiEEEENS_15iterator_traitsIT_E15difference_typeES5_S5_, symObjAddr: 0x15B9C, symBinAddr: 0x10004CC9C, symSize: 0x350 }
  - { offsetInCU: 0x10ADC, offset: 0x41368, size: 0x8, addend: 0x0, symName: __ZNSt3__110__distanceB7v160006INS_11__wrap_iterIPiEEEENS_15iterator_traitsIT_E15difference_typeES5_S5_NS_26random_access_iterator_tagE, symObjAddr: 0x16F28, symBinAddr: 0x10004D534, symSize: 0x274 }
  - { offsetInCU: 0x10B32, offset: 0x413BE, size: 0x8, addend: 0x0, symName: __ZNSt3__1miB7v160006IPiS1_EEDTmicldtfp_4baseEcldtfp0_4baseEERKNS_11__wrap_iterIT_EERKNS3_IT0_EE, symObjAddr: 0x1719C, symBinAddr: 0x10004D7A8, symSize: 0x48 }
  - { offsetInCU: 0x10B7E, offset: 0x4140A, size: 0x8, addend: 0x0, symName: __ZNSt3__130__uninitialized_allocator_copyB7v160006INS_9allocatorIiEENS_11__wrap_iterIPiEES5_S4_EET2_RT_T0_T1_S6_, symObjAddr: 0x17DB0, symBinAddr: 0x10004D850, symSize: 0x5BC }
  - { offsetInCU: 0x10C32, offset: 0x414BE, size: 0x8, addend: 0x0, symName: __ZNSt3__1neB7v160006IPiEEbRKNS_11__wrap_iterIT_EES6_, symObjAddr: 0x1887C, symBinAddr: 0x10004DE0C, symSize: 0x34 }
  - { offsetInCU: 0x10C75, offset: 0x41501, size: 0x8, addend: 0x0, symName: __ZNSt3__1eqB7v160006IPiEEbRKNS_11__wrap_iterIT_EES6_, symObjAddr: 0x18C40, symBinAddr: 0x10004DF08, symSize: 0x48 }
  - { offsetInCU: 0x10CB8, offset: 0x41544, size: 0x8, addend: 0x0, symName: __ZNSt3__14sortB7v160006INS_11__wrap_iterIPNS_4pairI8rangeNumbEEEENS_6__lessIS4_S4_EEEEvT_S9_T0_, symObjAddr: 0x1A5BC, symBinAddr: 0x10004DF50, symSize: 0x36C }
  - { offsetInCU: 0x10D1F, offset: 0x415AB, size: 0x8, addend: 0x0, symName: __ZNSt3__111__sort_implB7v160006INS_17_ClassicAlgPolicyENS_11__wrap_iterIPNS_4pairI8rangeNumbEEEENS_6__lessIS5_S5_EEEEvT0_SA_RT1_, symObjAddr: 0x1A928, symBinAddr: 0x10004E2BC, symSize: 0x43C }
  - { offsetInCU: 0x10DD3, offset: 0x4165F, size: 0x8, addend: 0x0, symName: __ZNSt3__123__debug_randomize_rangeB7v160006INS_17_ClassicAlgPolicyENS_11__wrap_iterIPNS_4pairI8rangeNumbEEEES7_EEvT0_T1_, symObjAddr: 0x1AD64, symBinAddr: 0x10004E6F8, symSize: 0x264 }
  - { offsetInCU: 0x10E2D, offset: 0x416B9, size: 0x8, addend: 0x0, symName: __ZNSt3__16__sortIRNS_6__lessINS_4pairI8rangeNumbEES4_EEPS4_EEvT0_S8_T_, symObjAddr: 0x1AFC8, symBinAddr: 0x10004E95C, symSize: 0x68 }
  - { offsetInCU: 0x10EBE, offset: 0x4174A, size: 0x8, addend: 0x0, symName: __ZNSt3__113__unwrap_iterB7v160006INS_11__wrap_iterIPNS_4pairI8rangeNumbEEEENS_18__unwrap_iter_implIS6_Lb1EEELi0EEEDTclsrT0_8__unwrapclsr3stdE7declvalIT_EEEESA_, symObjAddr: 0x1B030, symBinAddr: 0x10004E9C4, symSize: 0x274 }
  - { offsetInCU: 0x10F07, offset: 0x41793, size: 0x8, addend: 0x0, symName: __ZNSt3__17__log2iB7v160006IlEET_S1_, symObjAddr: 0x1B2A4, symBinAddr: 0x10004EC38, symSize: 0x54 }
  - { offsetInCU: 0x10FAC, offset: 0x41838, size: 0x8, addend: 0x0, symName: __ZNSt3__112__libcpp_clzB7v160006Em, symObjAddr: 0x1D1C4, symBinAddr: 0x100050B58, symSize: 0x1C }
  - { offsetInCU: 0x1109C, offset: 0x41928, size: 0x8, addend: 0x0, symName: __ZNSt3__124__sort3_maybe_branchlessB7v160006INS_17_ClassicAlgPolicyERNS_6__lessINS_4pairI8rangeNumbEES5_EEPS5_EENS_9enable_ifIXntsr21__use_branchless_sortIT0_T1_EE5valueEvE4typeESB_SB_SB_SA_, symObjAddr: 0x1D2C4, symBinAddr: 0x100050C58, symSize: 0x3C }
  - { offsetInCU: 0x1110D, offset: 0x41999, size: 0x8, addend: 0x0, symName: __ZNSt3__124__sort4_maybe_branchlessB7v160006INS_17_ClassicAlgPolicyERNS_6__lessINS_4pairI8rangeNumbEES5_EEPS5_EENS_9enable_ifIXntsr21__use_branchless_sortIT0_T1_EE5valueEvE4typeESB_SB_SB_SB_SA_, symObjAddr: 0x1D300, symBinAddr: 0x100050C94, symSize: 0x44 }
  - { offsetInCU: 0x11192, offset: 0x41A1E, size: 0x8, addend: 0x0, symName: __ZNSt3__124__sort5_maybe_branchlessB7v160006INS_17_ClassicAlgPolicyERNS_6__lessINS_4pairI8rangeNumbEES5_EEPS5_EENS_9enable_ifIXntsr21__use_branchless_sortIT0_T1_EE5valueEvE4typeESB_SB_SB_SB_SB_SA_, symObjAddr: 0x1D344, symBinAddr: 0x100050CD8, symSize: 0x4C }
  - { offsetInCU: 0x11226, offset: 0x41AB2, size: 0x8, addend: 0x0, symName: __ZNSt3__114__partial_sortB7v160006INS_17_ClassicAlgPolicyERNS_6__lessINS_4pairI8rangeNumbEES5_EEPS5_S8_EET1_S9_S9_T2_RT0_, symObjAddr: 0x1D934, symBinAddr: 0x1000512C8, symSize: 0x94 }
  - { offsetInCU: 0x112AF, offset: 0x41B3B, size: 0x8, addend: 0x0, symName: __ZNSt3__119__sort5_wrap_policyB7v160006INS_17_ClassicAlgPolicyERNS_6__lessINS_4pairI8rangeNumbEES5_EEPS5_EEjT1_S9_S9_S9_S9_T0_, symObjAddr: 0x1D9C8, symBinAddr: 0x10005135C, symSize: 0x54 }
  - { offsetInCU: 0x11356, offset: 0x41BE2, size: 0x8, addend: 0x0, symName: __ZNSt3__17__sort3B7v160006INS_17_ClassicAlgPolicyERNS_6__lessINS_4pairI8rangeNumbEES5_EEPS5_EEjT1_S9_S9_T0_, symObjAddr: 0x1DA1C, symBinAddr: 0x1000513B0, symSize: 0x66C }
  - { offsetInCU: 0x113E4, offset: 0x41C70, size: 0x8, addend: 0x0, symName: __ZNSt3__1ltB7v160006I8rangeNumbEEbRKNS_4pairIT_T0_EES7_, symObjAddr: 0x1ECC4, symBinAddr: 0x100052658, symSize: 0x164 }
  - { offsetInCU: 0x11433, offset: 0x41CBF, size: 0x8, addend: 0x0, symName: __ZNSt3__19iter_swapB7v160006IPNS_4pairI8rangeNumbEES4_EEvT_T0_, symObjAddr: 0x1F028, symBinAddr: 0x1000529BC, symSize: 0x2C }
  - { offsetInCU: 0x1147C, offset: 0x41D08, size: 0x8, addend: 0x0, symName: __ZNSt3__14swapB7v160006I8rangeNumbEENS_9enable_ifIXaasr14__is_swappableIT_EE5valuesr14__is_swappableIT0_EE5valueEvE4typeERNS_4pairIS3_S4_EES9_, symObjAddr: 0x1F054, symBinAddr: 0x1000529E8, symSize: 0x2C }
  - { offsetInCU: 0x114CB, offset: 0x41D57, size: 0x8, addend: 0x0, symName: __ZNSt3__14swapB7v160006I8rangeNumEENS_9enable_ifIXaasr21is_move_constructibleIT_EE5valuesr18is_move_assignableIS3_EE5valueEvE4typeERS3_S6_, symObjAddr: 0x1F0C4, symBinAddr: 0x100052A58, symSize: 0x1FC }
  - { offsetInCU: 0x11523, offset: 0x41DAF, size: 0x8, addend: 0x0, symName: __ZNSt3__14swapB7v160006IbEENS_9enable_ifIXaasr21is_move_constructibleIT_EE5valuesr18is_move_assignableIS2_EE5valueEvE4typeERS2_S5_, symObjAddr: 0x1F2C0, symBinAddr: 0x100052C54, symSize: 0x1DC }
  - { offsetInCU: 0x11575, offset: 0x41E01, size: 0x8, addend: 0x0, symName: __ZNSt3__17__sort4B7v160006INS_17_ClassicAlgPolicyERNS_6__lessINS_4pairI8rangeNumbEES5_EEPS5_EEjT1_S9_S9_S9_T0_, symObjAddr: 0x1F49C, symBinAddr: 0x100052E30, symSize: 0x608 }
  - { offsetInCU: 0x1163B, offset: 0x41EC7, size: 0x8, addend: 0x0, symName: __ZNSt3__123__debug_randomize_rangeB7v160006INS_17_ClassicAlgPolicyEPNS_4pairI8rangeNumbEES5_EEvT0_T1_, symObjAddr: 0x1FC44, symBinAddr: 0x1000535D8, symSize: 0x14 }
  - { offsetInCU: 0x1168C, offset: 0x41F18, size: 0x8, addend: 0x0, symName: __ZNSt3__119__partial_sort_implB7v160006INS_17_ClassicAlgPolicyERNS_6__lessINS_4pairI8rangeNumbEES5_EEPS5_S8_EET1_S9_S9_T2_OT0_, symObjAddr: 0x1FC58, symBinAddr: 0x1000535EC, symSize: 0x59C }
  - { offsetInCU: 0x11730, offset: 0x41FBC, size: 0x8, addend: 0x0, symName: __ZNSt3__111__make_heapB7v160006INS_17_ClassicAlgPolicyERNS_6__lessINS_4pairI8rangeNumbEES5_EEPS5_EEvT1_S9_OT0_, symObjAddr: 0x201F4, symBinAddr: 0x100053B88, symSize: 0xC4 }
  - { offsetInCU: 0x117D7, offset: 0x42063, size: 0x8, addend: 0x0, symName: __ZNSt3__111__sort_heapB7v160006INS_17_ClassicAlgPolicyERNS_6__lessINS_4pairI8rangeNumbEES5_EEPS5_EEvT1_S9_OT0_, symObjAddr: 0x20A88, symBinAddr: 0x10005441C, symSize: 0x94 }
  - { offsetInCU: 0x1186F, offset: 0x420FB, size: 0x8, addend: 0x0, symName: __ZNSt3__110__pop_heapB7v160006INS_17_ClassicAlgPolicyENS_6__lessINS_4pairI8rangeNumbEES5_EEPS5_EEvT1_S8_RT0_NS_15iterator_traitsIS8_E15difference_typeE, symObjAddr: 0x20B1C, symBinAddr: 0x1000544B0, symSize: 0x48C }
  - { offsetInCU: 0x1192B, offset: 0x421B7, size: 0x8, addend: 0x0, symName: __ZNSt3__19__sift_upB7v160006INS_17_ClassicAlgPolicyERNS_6__lessINS_4pairI8rangeNumbEES5_EEPS5_EEvT1_S9_OT0_NS_15iterator_traitsIS9_E15difference_typeE, symObjAddr: 0x2137C, symBinAddr: 0x100054D10, symSize: 0x594 }
  - { offsetInCU: 0x119DD, offset: 0x42269, size: 0x8, addend: 0x0, symName: __ZNSt3__17__sort5IRNS_6__lessINS_4pairI8rangeNumbEES4_EEPS4_EEjT0_S8_S8_S8_S8_T_, symObjAddr: 0x21910, symBinAddr: 0x1000552A4, symSize: 0x760 }
  - { offsetInCU: 0x11AF7, offset: 0x42383, size: 0x8, addend: 0x0, symName: __ZNSt3__112__to_addressB7v160006INS_11__wrap_iterIPNS_4pairI8rangeNumbEEEEvEENS_5decayIDTclsr19__to_address_helperIT_EE6__callclsr3stdE7declvalIRKS8_EEEEE4typeESA_, symObjAddr: 0x22260, symBinAddr: 0x100055BF4, symSize: 0x24 }
  - { offsetInCU: 0x1481B, offset: 0x450A7, size: 0x8, addend: 0x0, symName: __Z10emplaceMapRNSt3__13mapINS_12basic_stringIcNS_11char_traitsIcEENS_9allocatorIcEEEEiNS_4lessIS6_EENS4_INS_4pairIKS6_iEEEEEERi, symObjAddr: 0x0, symBinAddr: 0x10003C30C, symSize: 0x658 }
  - { offsetInCU: 0x14925, offset: 0x451B1, size: 0x8, addend: 0x0, symName: __ZNSt3__13mapINS_12basic_stringIcNS_11char_traitsIcEENS_9allocatorIcEEEEiNS_4lessIS6_EENS4_INS_4pairIKS6_iEEEEE7emplaceB7v160006IJRS6_RiEEENS9_INS_14__map_iteratorINS_15__tree_iteratorINS_12__value_typeIS6_iEEPNS_11__tree_nodeISK_PvEElEEEEbEEDpOT_, symObjAddr: 0x68C, symBinAddr: 0x10003C964, symSize: 0x2B0 }
  - { offsetInCU: 0x1497A, offset: 0x45206, size: 0x8, addend: 0x0, symName: __Z8checkKeyRNSt3__13mapINS_12basic_stringIcNS_11char_traitsIcEENS_9allocatorIcEEEEiNS_4lessIS6_EENS4_INS_4pairIKS6_iEEEEEERS6_RbSF_, symObjAddr: 0x93C, symBinAddr: 0x10003CC14, symSize: 0x58C }
  - { offsetInCU: 0x14A3F, offset: 0x452CB, size: 0x8, addend: 0x0, symName: __ZNSt3__13mapINS_12basic_stringIcNS_11char_traitsIcEENS_9allocatorIcEEEEiNS_4lessIS6_EENS4_INS_4pairIKS6_iEEEEE5beginB7v160006Ev, symObjAddr: 0xEC8, symBinAddr: 0x10003D1A0, symSize: 0x2B4 }
  - { offsetInCU: 0x14A64, offset: 0x452F0, size: 0x8, addend: 0x0, symName: __ZNSt3__13mapINS_12basic_stringIcNS_11char_traitsIcEENS_9allocatorIcEEEEiNS_4lessIS6_EENS4_INS_4pairIKS6_iEEEEE3endB7v160006Ev, symObjAddr: 0x117C, symBinAddr: 0x10003D454, symSize: 0x2B4 }
  - { offsetInCU: 0x14A89, offset: 0x45315, size: 0x8, addend: 0x0, symName: __ZNKSt3__114__map_iteratorINS_15__tree_iteratorINS_12__value_typeINS_12basic_stringIcNS_11char_traitsIcEENS_9allocatorIcEEEEiEEPNS_11__tree_nodeIS9_PvEElEEEdeB7v160006Ev, symObjAddr: 0x1460, symBinAddr: 0x10003D738, symSize: 0x28 }
  - { offsetInCU: 0x14AAD, offset: 0x45339, size: 0x8, addend: 0x0, symName: __ZNKSt3__112basic_stringIcNS_11char_traitsIcEENS_9allocatorIcEEE4findB7v160006ERKS5_m, symObjAddr: 0x14D0, symBinAddr: 0x10003D7A8, symSize: 0x78 }
  - { offsetInCU: 0x14AF1, offset: 0x4537D, size: 0x8, addend: 0x0, symName: __ZNSt3__112basic_stringIcNS_11char_traitsIcEENS_9allocatorIcEEEpLB7v160006ERKS5_, symObjAddr: 0x1548, symBinAddr: 0x10003D820, symSize: 0x2C }
  - { offsetInCU: 0x14B24, offset: 0x453B0, size: 0x8, addend: 0x0, symName: __ZNSt3__114__map_iteratorINS_15__tree_iteratorINS_12__value_typeINS_12basic_stringIcNS_11char_traitsIcEENS_9allocatorIcEEEEiEEPNS_11__tree_nodeIS9_PvEElEEEppB7v160006Ev, symObjAddr: 0x15A0, symBinAddr: 0x10003D84C, symSize: 0x2C }
  - { offsetInCU: 0x14B47, offset: 0x453D3, size: 0x8, addend: 0x0, symName: __Z12insertMatrixRNSt3__16vectorINS0_IcNS_9allocatorIcEEEENS1_IS3_EEEERNS_14basic_ifstreamIcNS_11char_traitsIcEEEERNS_12basic_stringIcS9_S2_EEii, symObjAddr: 0x15CC, symBinAddr: 0x10003D878, symSize: 0x1A8 }
  - { offsetInCU: 0x14CD4, offset: 0x45560, size: 0x8, addend: 0x0, symName: __Z15checkNextDigitsRNSt3__16vectorINS0_IcNS_9allocatorIcEEEENS1_IS3_EEEERmS7_RNS_12basic_stringIcNS_11char_traitsIcEES2_EEPi, symObjAddr: 0x195C, symBinAddr: 0x10003DA20, symSize: 0x364 }
  - { offsetInCU: 0x14D35, offset: 0x455C1, size: 0x8, addend: 0x0, symName: __Z12checkBordersRNSt3__16vectorINS0_IcNS_9allocatorIcEEEENS1_IS3_EEEERNS0_IiNS1_IiEEEERmRNS_12basic_stringIcNS_11char_traitsIcEES2_EEii, symObjAddr: 0x1D1C, symBinAddr: 0x10003DD84, symSize: 0x11F0 }
  - { offsetInCU: 0x14E3D, offset: 0x456C9, size: 0x8, addend: 0x0, symName: __Z10checkGearsRNSt3__16vectorINS0_IcNS_9allocatorIcEEEENS1_IS3_EEEERNS0_IiNS1_IiEEEERmRNS_12basic_stringIcNS_11char_traitsIcEES2_EESF_ii, symObjAddr: 0x2F78, symBinAddr: 0x10003EF74, symSize: 0xE0C }
  - { offsetInCU: 0x14F19, offset: 0x457A5, size: 0x8, addend: 0x0, symName: __Z11checkAdjNumRNSt3__16vectorINS0_IcNS_9allocatorIcEEEENS1_IS3_EEEEmmRNS_12basic_stringIcNS_11char_traitsIcEES2_EEiibb, symObjAddr: 0x3D84, symBinAddr: 0x10003FD80, symSize: 0x4F0 }
  - { offsetInCU: 0x14FE0, offset: 0x4586C, size: 0x8, addend: 0x0, symName: __Z9checkLeftRNSt3__16vectorINS0_IcNS_9allocatorIcEEEENS1_IS3_EEEEmmRNS_12basic_stringIcNS_11char_traitsIcEES2_EE, symObjAddr: 0x4274, symBinAddr: 0x100040270, symSize: 0x55C }
  - { offsetInCU: 0x1503D, offset: 0x458C9, size: 0x8, addend: 0x0, symName: __Z9mergeSortRNSt3__16vectorIiNS_9allocatorIiEEEEii, symObjAddr: 0x47D0, symBinAddr: 0x1000407CC, symSize: 0x98 }
  - { offsetInCU: 0x150A0, offset: 0x4592C, size: 0x8, addend: 0x0, symName: __Z5mergeRNSt3__16vectorIiNS_9allocatorIiEEEEiii, symObjAddr: 0x4868, symBinAddr: 0x100040864, symSize: 0xF48 }
  - { offsetInCU: 0x1516F, offset: 0x459FB, size: 0x8, addend: 0x0, symName: __ZNSt3__16vectorIiNS_9allocatorIiEEE5beginB7v160006Ev, symObjAddr: 0x57B0, symBinAddr: 0x1000417AC, symSize: 0x268 }
  - { offsetInCU: 0x15196, offset: 0x45A22, size: 0x8, addend: 0x0, symName: __ZNKSt3__111__wrap_iterIPiEplB7v160006El, symObjAddr: 0x5A18, symBinAddr: 0x100041A14, symSize: 0x20C }
  - { offsetInCU: 0x151DD, offset: 0x45A69, size: 0x8, addend: 0x0, symName: __ZNSt3__16vectorIiNS_9allocatorIiEEEC1INS_11__wrap_iterIPiEELi0EEET_S8_, symObjAddr: 0x5C24, symBinAddr: 0x100041C20, symSize: 0x2FC }
  - { offsetInCU: 0x1523E, offset: 0x45ACA, size: 0x8, addend: 0x0, symName: __Z12binarySearchRKNSt3__16vectorIiNS_9allocatorIiEEEEi, symObjAddr: 0x5F4C, symBinAddr: 0x100041F1C, symSize: 0x204 }
  - { offsetInCU: 0x152B5, offset: 0x45B41, size: 0x8, addend: 0x0, symName: __ZNKSt3__16vectorIiNS_9allocatorIiEEEixB7v160006Em, symObjAddr: 0x6200, symBinAddr: 0x100042120, symSize: 0x6C }
  - { offsetInCU: 0x152E9, offset: 0x45B75, size: 0x8, addend: 0x0, symName: __Z16recursiveScratchRiRNSt3__16vectorINS1_IiNS0_9allocatorIiEEEENS2_IS4_EEEES7_ii, symObjAddr: 0x626C, symBinAddr: 0x10004218C, symSize: 0x25C }
  - { offsetInCU: 0x153A4, offset: 0x45C30, size: 0x8, addend: 0x0, symName: __Z9skipLinesRNSt3__113basic_istreamIcNS_11char_traitsIcEEEEi, symObjAddr: 0x65EC, symBinAddr: 0x1000423E8, symSize: 0x74 }
  - { offsetInCU: 0x153F9, offset: 0x45C85, size: 0x8, addend: 0x0, symName: __Z14recursiveMergeRKNSt3__16vectorINS_4pairI8rangeNumbEENS_9allocatorIS3_EEEERKS2_RS2_Rm, symObjAddr: 0x6674, symBinAddr: 0x10004245C, symSize: 0x3B0 }
  - { offsetInCU: 0x1544D, offset: 0x45CD9, size: 0x8, addend: 0x0, symName: __ZNKSt3__16vectorINS_4pairI8rangeNumbEENS_9allocatorIS3_EEEixB7v160006Em, symObjAddr: 0x6AD4, symBinAddr: 0x10004280C, symSize: 0x74 }
  - { offsetInCU: 0x15481, offset: 0x45D0D, size: 0x8, addend: 0x0, symName: __Z10mergeSeedsRNSt3__16vectorINS_4pairI8rangeNumbEENS_9allocatorIS3_EEEES7_RS2_S8_, symObjAddr: 0x6B48, symBinAddr: 0x100042880, symSize: 0x948 }
  - { offsetInCU: 0x154FB, offset: 0x45D87, size: 0x8, addend: 0x0, symName: __ZNSt3__16vectorINS_4pairI8rangeNumbEENS_9allocatorIS3_EEEixB7v160006Em, symObjAddr: 0x7CAC, symBinAddr: 0x100043510, symSize: 0x74 }
  - { offsetInCU: 0x1553F, offset: 0x45DCB, size: 0x8, addend: 0x0, symName: __ZNSt3__16vectorINS_4pairI8rangeNumbEENS_9allocatorIS3_EEE12emplace_backIJRS2_bEEERS3_DpOT_, symObjAddr: 0x7E40, symBinAddr: 0x100043584, symSize: 0xF4 }
  - { offsetInCU: 0x15593, offset: 0x45E1F, size: 0x8, addend: 0x0, symName: __Z18addTimeAndDistanceRNSt3__114basic_ifstreamIcNS_11char_traitsIcEEEERNS_19basic_istringstreamIcS2_NS_9allocatorIcEEEERNS_12basic_stringIcS2_S7_EERiRNS_6vectorIiNS6_IiEEEE, symObjAddr: 0x8024, symBinAddr: 0x100043678, symSize: 0x45C }
  - { offsetInCU: 0x1565A, offset: 0x45EE6, size: 0x8, addend: 0x0, symName: __ZNSt3__16vectorIiNS_9allocatorIiEEE12emplace_backIJRiEEES5_DpOT_, symObjAddr: 0x8760, symBinAddr: 0x100043AD4, symSize: 0xE8 }
  - { offsetInCU: 0x1569A, offset: 0x45F26, size: 0x8, addend: 0x0, symName: __Z11fixBoundaryIiET_RKS0_S2_OS0_OKi, symObjAddr: 0x8874, symBinAddr: 0x100043BBC, symSize: 0x5D8 }
  - { offsetInCU: 0x1575B, offset: 0x45FE7, size: 0x8, addend: 0x0, symName: __ZZ11fixBoundaryIiET_RKS0_S2_OS0_OKiENKUliE_clEi, symObjAddr: 0x8E4C, symBinAddr: 0x100044194, symSize: 0x190 }
  - { offsetInCU: 0x15791, offset: 0x4601D, size: 0x8, addend: 0x0, symName: __Z11fixBoundaryIxET_RKS0_S2_OS0_OKi, symObjAddr: 0x8FDC, symBinAddr: 0x100044324, symSize: 0x510 }
  - { offsetInCU: 0x1585C, offset: 0x460E8, size: 0x8, addend: 0x0, symName: __ZZ11fixBoundaryIxET_RKS0_S2_OS0_OKiENKUlxE_clEx, symObjAddr: 0x94EC, symBinAddr: 0x100044834, symSize: 0x140 }
  - { offsetInCU: 0x15892, offset: 0x4611E, size: 0x8, addend: 0x0, symName: __Z25anotherAddTimeAndDistanceRNSt3__114basic_ifstreamIcNS_11char_traitsIcEEEERNS_19basic_istringstreamIcS2_NS_9allocatorIcEEEERNS_12basic_stringIcS2_S7_EESC_SC_Rx, symObjAddr: 0x962C, symBinAddr: 0x100044974, symSize: 0x4C4 }
  - { offsetInCU: 0x159F4, offset: 0x46280, size: 0x8, addend: 0x0, symName: __ZN4Card5ClearEv, symObjAddr: 0xA4B0, symBinAddr: 0x100044E38, symSize: 0xA0 }
  - { offsetInCU: 0x15A1C, offset: 0x462A8, size: 0x8, addend: 0x0, symName: __ZN4CardC2Ev, symObjAddr: 0xA550, symBinAddr: 0x100044ED8, symSize: 0x114 }
  - { offsetInCU: 0x15A48, offset: 0x462D4, size: 0x8, addend: 0x0, symName: __ZN4CardC1Ev, symObjAddr: 0xA664, symBinAddr: 0x100044FEC, symSize: 0x2C }
  - { offsetInCU: 0x15A74, offset: 0x46300, size: 0x8, addend: 0x0, symName: __ZN4CardC2ERKS_, symObjAddr: 0xA690, symBinAddr: 0x100045018, symSize: 0x18C }
  - { offsetInCU: 0x15AAF, offset: 0x4633B, size: 0x8, addend: 0x0, symName: __ZN4CardC1ERKS_, symObjAddr: 0xA81C, symBinAddr: 0x1000451A4, symSize: 0x34 }
  - { offsetInCU: 0x15AEA, offset: 0x46376, size: 0x8, addend: 0x0, symName: __ZN4CardaSERKS_, symObjAddr: 0xA850, symBinAddr: 0x1000451D8, symSize: 0x138 }
  - { offsetInCU: 0x15B21, offset: 0x463AD, size: 0x8, addend: 0x0, symName: __ZN4CardC2EOS_, symObjAddr: 0xA988, symBinAddr: 0x100045310, symSize: 0x18C }
  - { offsetInCU: 0x15B5C, offset: 0x463E8, size: 0x8, addend: 0x0, symName: __ZNSt3__112basic_stringIcNS_11char_traitsIcEENS_9allocatorIcEEEC1B7v160006EOS5_, symObjAddr: 0xAB14, symBinAddr: 0x10004549C, symSize: 0x34 }
  - { offsetInCU: 0x15B93, offset: 0x4641F, size: 0x8, addend: 0x0, symName: __ZN4CardC1EOS_, symObjAddr: 0xAB48, symBinAddr: 0x1000454D0, symSize: 0x34 }
  - { offsetInCU: 0x15BCE, offset: 0x4645A, size: 0x8, addend: 0x0, symName: __ZN4CardaSEOS_, symObjAddr: 0xAB7C, symBinAddr: 0x100045504, symSize: 0x13C }
  - { offsetInCU: 0x15C05, offset: 0x46491, size: 0x8, addend: 0x0, symName: __ZNSt3__112basic_stringIcNS_11char_traitsIcEENS_9allocatorIcEEEaSB7v160006EOS5_, symObjAddr: 0xACB8, symBinAddr: 0x100045640, symSize: 0x34 }
  - { offsetInCU: 0x15C38, offset: 0x464C4, size: 0x8, addend: 0x0, symName: __ZN4CardD2Ev, symObjAddr: 0xACEC, symBinAddr: 0x100045674, symSize: 0x34 }
  - { offsetInCU: 0x15C64, offset: 0x464F0, size: 0x8, addend: 0x0, symName: __ZN4CardD1Ev, symObjAddr: 0xAD20, symBinAddr: 0x1000456A8, symSize: 0x2C }
  - { offsetInCU: 0x15D84, offset: 0x46610, size: 0x8, addend: 0x0, symName: __ZN16DoubleLinkedList5ClearEv, symObjAddr: 0xAD4C, symBinAddr: 0x1000456D4, symSize: 0x170 }
  - { offsetInCU: 0x15DD9, offset: 0x46665, size: 0x8, addend: 0x0, symName: __ZN16DoubleLinkedListC2Ev, symObjAddr: 0xAEBC, symBinAddr: 0x100045844, symSize: 0x9C }
  - { offsetInCU: 0x15E05, offset: 0x46691, size: 0x8, addend: 0x0, symName: __ZN16DoubleLinkedListC1Ev, symObjAddr: 0xAF58, symBinAddr: 0x1000458E0, symSize: 0x2C }
  - { offsetInCU: 0x15E31, offset: 0x466BD, size: 0x8, addend: 0x0, symName: __ZN16DoubleLinkedListC2ERKS_, symObjAddr: 0xAF84, symBinAddr: 0x10004590C, symSize: 0x3B8 }
  - { offsetInCU: 0x15E96, offset: 0x46722, size: 0x8, addend: 0x0, symName: __ZN16DoubleLinkedListC1ERKS_, symObjAddr: 0xB33C, symBinAddr: 0x100045CC4, symSize: 0x34 }
  - { offsetInCU: 0x15ED1, offset: 0x4675D, size: 0x8, addend: 0x0, symName: __ZN16DoubleLinkedListaSERKS_, symObjAddr: 0xB370, symBinAddr: 0x100045CF8, symSize: 0x360 }
  - { offsetInCU: 0x15F32, offset: 0x467BE, size: 0x8, addend: 0x0, symName: __ZN16DoubleLinkedListC2EOS_, symObjAddr: 0xB6D0, symBinAddr: 0x100046058, symSize: 0x340 }
  - { offsetInCU: 0x15F97, offset: 0x46823, size: 0x8, addend: 0x0, symName: __ZN16DoubleLinkedListC1EOS_, symObjAddr: 0xBA10, symBinAddr: 0x100046398, symSize: 0x34 }
  - { offsetInCU: 0x15FD2, offset: 0x4685E, size: 0x8, addend: 0x0, symName: __ZN16DoubleLinkedListaSEOS_, symObjAddr: 0xBA44, symBinAddr: 0x1000463CC, symSize: 0x360 }
  - { offsetInCU: 0x16033, offset: 0x468BF, size: 0x8, addend: 0x0, symName: __ZN16DoubleLinkedListD2Ev, symObjAddr: 0xBDA4, symBinAddr: 0x10004672C, symSize: 0x2C }
  - { offsetInCU: 0x1605F, offset: 0x468EB, size: 0x8, addend: 0x0, symName: __ZN16DoubleLinkedListD1Ev, symObjAddr: 0xBDD0, symBinAddr: 0x100046758, symSize: 0x2C }
  - { offsetInCU: 0x1608B, offset: 0x46917, size: 0x8, addend: 0x0, symName: __ZN16DoubleLinkedList10insertCardERKNSt3__112basic_stringIcNS0_11char_traitsIcEENS0_9allocatorIcEEEERKi, symObjAddr: 0xBDFC, symBinAddr: 0x100046784, symSize: 0x384 }
  - { offsetInCU: 0x160E0, offset: 0x4696C, size: 0x8, addend: 0x0, symName: __ZN16DoubleLinkedList12displayCardsEv, symObjAddr: 0xC180, symBinAddr: 0x100046B08, symSize: 0x164 }
  - { offsetInCU: 0x16117, offset: 0x469A3, size: 0x8, addend: 0x0, symName: __ZNSt3__110__get_pairILm0EE3getB7v160006IKNS_12basic_stringIcNS_11char_traitsIcEENS_9allocatorIcEEEEiEERKT_RKNS_4pairISA_T0_EE, symObjAddr: 0xC378, symBinAddr: 0x100046CB8, symSize: 0x14 }
  - { offsetInCU: 0x1614C, offset: 0x469D8, size: 0x8, addend: 0x0, symName: __ZNSt3__110__get_pairILm1EE3getB7v160006IKNS_12basic_stringIcNS_11char_traitsIcEENS_9allocatorIcEEEEiEERKT0_RKNS_4pairIT_SA_EE, symObjAddr: 0xC38C, symBinAddr: 0x100046CCC, symSize: 0x18 }
  - { offsetInCU: 0x16181, offset: 0x46A0D, size: 0x8, addend: 0x0, symName: __ZNSt3__111__wrap_iterIPiEpLB7v160006El, symObjAddr: 0xC4A0, symBinAddr: 0x100046CE4, symSize: 0x78 }
  - { offsetInCU: 0x161B3, offset: 0x46A3F, size: 0x8, addend: 0x0, symName: __ZNSt3__112basic_stringIcNS_11char_traitsIcEENS_9allocatorIcEEEC2B7v160006EOS5_, symObjAddr: 0xC7C4, symBinAddr: 0x100046D5C, symSize: 0x88 }
  - { offsetInCU: 0x161EA, offset: 0x46A76, size: 0x8, addend: 0x0, symName: __ZNSt3__112basic_stringIcNS_11char_traitsIcEENS_9allocatorIcEEE13__move_assignB7v160006ERS5_NS_17integral_constantIbLb1EEE, symObjAddr: 0xCBBC, symBinAddr: 0x100046DF8, symSize: 0x2D0 }
  - { offsetInCU: 0x1622E, offset: 0x46ABA, size: 0x8, addend: 0x0, symName: __ZNSt3__112basic_stringIcNS_11char_traitsIcEENS_9allocatorIcEEE7__allocB7v160006Ev, symObjAddr: 0xCEC0, symBinAddr: 0x1000470C8, symSize: 0x24 }
  - { offsetInCU: 0x16252, offset: 0x46ADE, size: 0x8, addend: 0x0, symName: __ZNKSt3__112basic_stringIcNS_11char_traitsIcEENS_9allocatorIcEEE14__get_long_capB7v160006Ev, symObjAddr: 0xCF50, symBinAddr: 0x1000470EC, symSize: 0x78 }
  - { offsetInCU: 0x16276, offset: 0x46B02, size: 0x8, addend: 0x0, symName: __ZNSt3__112basic_stringIcNS_11char_traitsIcEENS_9allocatorIcEEE19__move_assign_allocB7v160006ERS5_, symObjAddr: 0xCFC8, symBinAddr: 0x100047164, symSize: 0x2C }
  - { offsetInCU: 0x162A9, offset: 0x46B35, size: 0x8, addend: 0x0, symName: __ZNSt3__117__compressed_pairINS_12basic_stringIcNS_11char_traitsIcEENS_9allocatorIcEEE5__repES5_E6secondB7v160006Ev, symObjAddr: 0xD3B4, symBinAddr: 0x100047190, symSize: 0x24 }
  - { offsetInCU: 0x162CD, offset: 0x46B59, size: 0x8, addend: 0x0, symName: __ZNSt3__112basic_stringIcNS_11char_traitsIcEENS_9allocatorIcEEE19__move_assign_allocB7v160006ERS5_NS_17integral_constantIbLb1EEE, symObjAddr: 0xD3EC, symBinAddr: 0x1000471B4, symSize: 0x38 }
  - { offsetInCU: 0x1630C, offset: 0x46B98, size: 0x8, addend: 0x0, symName: __ZNSt3__112basic_stringIcNS_11char_traitsIcEENS_9allocatorIcEEE6appendB7v160006ERKS5_, symObjAddr: 0xD438, symBinAddr: 0x1000471EC, symSize: 0x4C }
  - { offsetInCU: 0x1633F, offset: 0x46BCB, size: 0x8, addend: 0x0, symName: __ZNSt3__16__treeINS_12__value_typeINS_12basic_stringIcNS_11char_traitsIcEENS_9allocatorIcEEEEiEENS_19__map_value_compareIS7_S8_NS_4lessIS7_EELb1EEENS5_IS8_EEE16__emplace_uniqueB7v160006IRS7_RiEENS_9enable_ifIXsr21__can_extract_map_keyIT_S7_NS_4pairIKS7_iEEEE5valueENSK_INS_15__tree_iteratorIS8_PNS_11__tree_nodeIS8_PvEElEEbEEE4typeEOSJ_OT0_, symObjAddr: 0xDA94, symBinAddr: 0x100047238, symSize: 0x230 }
  - { offsetInCU: 0x16396, offset: 0x46C22, size: 0x8, addend: 0x0, symName: __ZNSt3__14pairINS_14__map_iteratorINS_15__tree_iteratorINS_12__value_typeINS_12basic_stringIcNS_11char_traitsIcEENS_9allocatorIcEEEEiEEPNS_11__tree_nodeISA_PvEElEEEEbEC1B7v160006ISF_bLSC_0EEEONS0_IT_T0_EE, symObjAddr: 0xDCC4, symBinAddr: 0x100047468, symSize: 0x34 }
  - { offsetInCU: 0x163E6, offset: 0x46C72, size: 0x8, addend: 0x0, symName: __ZNSt3__16__treeINS_12__value_typeINS_12basic_stringIcNS_11char_traitsIcEENS_9allocatorIcEEEEiEENS_19__map_value_compareIS7_S8_NS_4lessIS7_EELb1EEENS5_IS8_EEE25__emplace_unique_key_argsIS7_JRS7_RiEEENS_4pairINS_15__tree_iteratorIS8_PNS_11__tree_nodeIS8_PvEElEEbEERKT_DpOT0_, symObjAddr: 0xDCF8, symBinAddr: 0x10004749C, symSize: 0x518 }
  - { offsetInCU: 0x164B6, offset: 0x46D42, size: 0x8, addend: 0x0, symName: __ZNSt3__16__treeINS_12__value_typeINS_12basic_stringIcNS_11char_traitsIcEENS_9allocatorIcEEEEiEENS_19__map_value_compareIS7_S8_NS_4lessIS7_EELb1EEENS5_IS8_EEE12__find_equalIS7_EERPNS_16__tree_node_baseIPvEERPNS_15__tree_end_nodeISJ_EERKT_, symObjAddr: 0xE210, symBinAddr: 0x1000479B4, symSize: 0x3F0 }
  - { offsetInCU: 0x16521, offset: 0x46DAD, size: 0x8, addend: 0x0, symName: __ZNSt3__16__treeINS_12__value_typeINS_12basic_stringIcNS_11char_traitsIcEENS_9allocatorIcEEEEiEENS_19__map_value_compareIS7_S8_NS_4lessIS7_EELb1EEENS5_IS8_EEE16__construct_nodeIJRS7_RiEEENS_10unique_ptrINS_11__tree_nodeIS8_PvEENS_22__tree_node_destructorINS5_ISL_EEEEEEDpOT_, symObjAddr: 0xE600, symBinAddr: 0x100047DA4, symSize: 0x38C }
  - { offsetInCU: 0x1659A, offset: 0x46E26, size: 0x8, addend: 0x0, symName: __ZNSt3__16__treeINS_12__value_typeINS_12basic_stringIcNS_11char_traitsIcEENS_9allocatorIcEEEEiEENS_19__map_value_compareIS7_S8_NS_4lessIS7_EELb1EEENS5_IS8_EEE16__insert_node_atEPNS_15__tree_end_nodeIPNS_16__tree_node_baseIPvEEEERSJ_SJ_, symObjAddr: 0xE98C, symBinAddr: 0x100048130, symSize: 0x370 }
  - { offsetInCU: 0x165ED, offset: 0x46E79, size: 0x8, addend: 0x0, symName: __ZNKSt3__110unique_ptrINS_11__tree_nodeINS_12__value_typeINS_12basic_stringIcNS_11char_traitsIcEENS_9allocatorIcEEEEiEEPvEENS_22__tree_node_destructorINS6_ISB_EEEEE3getB7v160006Ev, symObjAddr: 0xECFC, symBinAddr: 0x1000484A0, symSize: 0x6C }
  - { offsetInCU: 0x16611, offset: 0x46E9D, size: 0x8, addend: 0x0, symName: __ZNSt3__110unique_ptrINS_11__tree_nodeINS_12__value_typeINS_12basic_stringIcNS_11char_traitsIcEENS_9allocatorIcEEEEiEEPvEENS_22__tree_node_destructorINS6_ISB_EEEEE7releaseB7v160006Ev, symObjAddr: 0xED68, symBinAddr: 0x10004850C, symSize: 0xB8 }
  - { offsetInCU: 0x16644, offset: 0x46ED0, size: 0x8, addend: 0x0, symName: __ZNSt3__110unique_ptrINS_11__tree_nodeINS_12__value_typeINS_12basic_stringIcNS_11char_traitsIcEENS_9allocatorIcEEEEiEEPvEENS_22__tree_node_destructorINS6_ISB_EEEEED1B7v160006Ev, symObjAddr: 0xEE20, symBinAddr: 0x1000485C4, symSize: 0x2C }
  - { offsetInCU: 0x1666C, offset: 0x46EF8, size: 0x8, addend: 0x0, symName: __ZNSt3__115__tree_iteratorINS_12__value_typeINS_12basic_stringIcNS_11char_traitsIcEENS_9allocatorIcEEEEiEEPNS_11__tree_nodeIS8_PvEElEC1B7v160006ESC_, symObjAddr: 0xEE4C, symBinAddr: 0x1000485F0, symSize: 0x34 }
  - { offsetInCU: 0x166A8, offset: 0x46F34, size: 0x8, addend: 0x0, symName: __ZNSt3__14pairINS_15__tree_iteratorINS_12__value_typeINS_12basic_stringIcNS_11char_traitsIcEENS_9allocatorIcEEEEiEEPNS_11__tree_nodeIS9_PvEElEEbEC1B7v160006ISE_RbLSB_0EEEOT_OT0_, symObjAddr: 0xEE80, symBinAddr: 0x100048624, symSize: 0x3C }
  - { offsetInCU: 0x16705, offset: 0x46F91, size: 0x8, addend: 0x0, symName: __ZNKSt3__16__treeINS_12__value_typeINS_12basic_stringIcNS_11char_traitsIcEENS_9allocatorIcEEEEiEENS_19__map_value_compareIS7_S8_NS_4lessIS7_EELb1EEENS5_IS8_EEE10__root_ptrEv, symObjAddr: 0xEF28, symBinAddr: 0x100048660, symSize: 0x24 }
  - { offsetInCU: 0x16729, offset: 0x46FB5, size: 0x8, addend: 0x0, symName: __ZNSt3__16__treeINS_12__value_typeINS_12basic_stringIcNS_11char_traitsIcEENS_9allocatorIcEEEEiEENS_19__map_value_compareIS7_S8_NS_4lessIS7_EELb1EEENS5_IS8_EEE10value_compB7v160006Ev, symObjAddr: 0xEF4C, symBinAddr: 0x100048684, symSize: 0x28 }
  - { offsetInCU: 0x1674D, offset: 0x46FD9, size: 0x8, addend: 0x0, symName: __ZNKSt3__119__map_value_compareINS_12basic_stringIcNS_11char_traitsIcEENS_9allocatorIcEEEENS_12__value_typeIS6_iEENS_4lessIS6_EELb1EEclB7v160006ERKS6_RKS8_, symObjAddr: 0xEF74, symBinAddr: 0x1000486AC, symSize: 0x50 }
  - { offsetInCU: 0x1678F, offset: 0x4701B, size: 0x8, addend: 0x0, symName: __ZNKSt3__119__map_value_compareINS_12basic_stringIcNS_11char_traitsIcEENS_9allocatorIcEEEENS_12__value_typeIS6_iEENS_4lessIS6_EELb1EEclB7v160006ERKS8_RKS6_, symObjAddr: 0xEFC4, symBinAddr: 0x1000486FC, symSize: 0x48 }
  - { offsetInCU: 0x167D1, offset: 0x4705D, size: 0x8, addend: 0x0, symName: __ZNSt3__117__compressed_pairImNS_19__map_value_compareINS_12basic_stringIcNS_11char_traitsIcEENS_9allocatorIcEEEENS_12__value_typeIS7_iEENS_4lessIS7_EELb1EEEE6secondB7v160006Ev, symObjAddr: 0xF0B0, symBinAddr: 0x100048744, symSize: 0x24 }
  - { offsetInCU: 0x167F5, offset: 0x47081, size: 0x8, addend: 0x0, symName: __ZNSt3__122__compressed_pair_elemINS_19__map_value_compareINS_12basic_stringIcNS_11char_traitsIcEENS_9allocatorIcEEEENS_12__value_typeIS7_iEENS_4lessIS7_EELb1EEELi1ELb1EE5__getB7v160006Ev, symObjAddr: 0xF0D4, symBinAddr: 0x100048768, symSize: 0x14 }
  - { offsetInCU: 0x16819, offset: 0x470A5, size: 0x8, addend: 0x0, symName: __ZNKSt3__14lessINS_12basic_stringIcNS_11char_traitsIcEENS_9allocatorIcEEEEEclB7v160006ERKS6_S9_, symObjAddr: 0xF0E8, symBinAddr: 0x10004877C, symSize: 0x34 }
  - { offsetInCU: 0x1685B, offset: 0x470E7, size: 0x8, addend: 0x0, symName: __ZNKSt3__112__value_typeINS_12basic_stringIcNS_11char_traitsIcEENS_9allocatorIcEEEEiE11__get_valueB7v160006Ev, symObjAddr: 0xF11C, symBinAddr: 0x1000487B0, symSize: 0x24 }
  - { offsetInCU: 0x1687F, offset: 0x4710B, size: 0x8, addend: 0x0, symName: __ZNKSt3__112basic_stringIcNS_11char_traitsIcEENS_9allocatorIcEEE7compareB7v160006ERKS5_, symObjAddr: 0xF178, symBinAddr: 0x10004880C, symSize: 0x238 }
  - { offsetInCU: 0x168B6, offset: 0x47142, size: 0x8, addend: 0x0, symName: __ZNKSt3__112basic_stringIcNS_11char_traitsIcEENS_9allocatorIcEEE7compareINS_17basic_string_viewIcS2_EEEENS_9enable_ifIXsr33__can_be_converted_to_string_viewIcS2_T_EE5valueEiE4typeERKSA_, symObjAddr: 0xF3B0, symBinAddr: 0x100048A44, symSize: 0x4E4 }
  - { offsetInCU: 0x1693F, offset: 0x471CB, size: 0x8, addend: 0x0, symName: __ZNKSt3__112basic_stringIcNS_11char_traitsIcEENS_9allocatorIcEEEcvNS_17basic_string_viewIcS2_EEB7v160006Ev, symObjAddr: 0xF894, symBinAddr: 0x100048F28, symSize: 0x228 }
  - { offsetInCU: 0x16964, offset: 0x471F0, size: 0x8, addend: 0x0, symName: __ZNKSt3__117basic_string_viewIcNS_11char_traitsIcEEE4sizeB7v160006Ev, symObjAddr: 0xFABC, symBinAddr: 0x100049150, symSize: 0x64 }
  - { offsetInCU: 0x16988, offset: 0x47214, size: 0x8, addend: 0x0, symName: __ZNKSt3__117basic_string_viewIcNS_11char_traitsIcEEE4dataB7v160006Ev, symObjAddr: 0xFB98, symBinAddr: 0x1000491B4, symSize: 0x60 }
  - { offsetInCU: 0x169AC, offset: 0x47238, size: 0x8, addend: 0x0, symName: __ZNSt3__117basic_string_viewIcNS_11char_traitsIcEEEC1B7v160006EPKcm, symObjAddr: 0xFEFC, symBinAddr: 0x100049214, symSize: 0x3C }
  - { offsetInCU: 0x169F2, offset: 0x4727E, size: 0x8, addend: 0x0, symName: __ZNSt3__117basic_string_viewIcNS_11char_traitsIcEEEC2B7v160006EPKcm, symObjAddr: 0xFF38, symBinAddr: 0x100049250, symSize: 0xE0 }
  - { offsetInCU: 0x16A38, offset: 0x472C4, size: 0x8, addend: 0x0, symName: __ZNSt3__116allocator_traitsINS_9allocatorINS_11__tree_nodeINS_12__value_typeINS_12basic_stringIcNS_11char_traitsIcEENS1_IcEEEEiEEPvEEEEE8allocateB7v160006ERSC_m, symObjAddr: 0x100B0, symBinAddr: 0x100049368, symSize: 0x2C }
  - { offsetInCU: 0x16A6A, offset: 0x472F6, size: 0x8, addend: 0x0, symName: __ZNSt3__122__tree_node_destructorINS_9allocatorINS_11__tree_nodeINS_12__value_typeINS_12basic_stringIcNS_11char_traitsIcEENS1_IcEEEEiEEPvEEEEEC1B7v160006ERSC_b, symObjAddr: 0x100DC, symBinAddr: 0x100049394, symSize: 0x48 }
  - { offsetInCU: 0x16AB5, offset: 0x47341, size: 0x8, addend: 0x0, symName: __ZNSt3__110unique_ptrINS_11__tree_nodeINS_12__value_typeINS_12basic_stringIcNS_11char_traitsIcEENS_9allocatorIcEEEEiEEPvEENS_22__tree_node_destructorINS6_ISB_EEEEEC1B7v160006ILb1EvEEPSB_NS_16__dependent_typeINS_27__unique_ptr_deleter_sfinaeISE_EEXT_EE20__good_rval_ref_typeE, symObjAddr: 0x10124, symBinAddr: 0x1000493DC, symSize: 0x3C }
  - { offsetInCU: 0x16B05, offset: 0x47391, size: 0x8, addend: 0x0, symName: __ZNSt3__116allocator_traitsINS_9allocatorINS_11__tree_nodeINS_12__value_typeINS_12basic_stringIcNS_11char_traitsIcEENS1_IcEEEEiEEPvEEEEE9constructB7v160006INS_4pairIKS8_iEEJRS8_RiEvEEvRSC_PT_DpOT0_, symObjAddr: 0x10160, symBinAddr: 0x100049418, symSize: 0x3C }
  - { offsetInCU: 0x16B71, offset: 0x473FD, size: 0x8, addend: 0x0, symName: __ZNKSt3__110unique_ptrINS_11__tree_nodeINS_12__value_typeINS_12basic_stringIcNS_11char_traitsIcEENS_9allocatorIcEEEEiEEPvEENS_22__tree_node_destructorINS6_ISB_EEEEEptB7v160006Ev, symObjAddr: 0x101C0, symBinAddr: 0x100049454, symSize: 0x6C }
  - { offsetInCU: 0x16B95, offset: 0x47421, size: 0x8, addend: 0x0, symName: __ZNSt3__110unique_ptrINS_11__tree_nodeINS_12__value_typeINS_12basic_stringIcNS_11char_traitsIcEENS_9allocatorIcEEEEiEEPvEENS_22__tree_node_destructorINS6_ISB_EEEEE11get_deleterB7v160006Ev, symObjAddr: 0x1022C, symBinAddr: 0x1000494C0, symSize: 0x24 }
  - { offsetInCU: 0x16BB9, offset: 0x47445, size: 0x8, addend: 0x0, symName: __ZNSt3__19allocatorINS_11__tree_nodeINS_12__value_typeINS_12basic_stringIcNS_11char_traitsIcEENS0_IcEEEEiEEPvEEE8allocateB7v160006Em, symObjAddr: 0x10288, symBinAddr: 0x1000494E4, symSize: 0x5C }
  - { offsetInCU: 0x16BF5, offset: 0x47481, size: 0x8, addend: 0x0, symName: __ZNSt3__116allocator_traitsINS_9allocatorINS_11__tree_nodeINS_12__value_typeINS_12basic_stringIcNS_11char_traitsIcEENS1_IcEEEEiEEPvEEEEE8max_sizeB7v160006ISC_vEEmRKSC_, symObjAddr: 0x102E4, symBinAddr: 0x100049540, symSize: 0x24 }
  - { offsetInCU: 0x16C23, offset: 0x474AF, size: 0x8, addend: 0x0, symName: __ZNKSt3__19allocatorINS_11__tree_nodeINS_12__value_typeINS_12basic_stringIcNS_11char_traitsIcEENS0_IcEEEEiEEPvEEE8max_sizeB7v160006Ev, symObjAddr: 0x103A0, symBinAddr: 0x100049564, symSize: 0x14 }
  - { offsetInCU: 0x16C47, offset: 0x474D3, size: 0x8, addend: 0x0, symName: __ZNSt3__122__tree_node_destructorINS_9allocatorINS_11__tree_nodeINS_12__value_typeINS_12basic_stringIcNS_11char_traitsIcEENS1_IcEEEEiEEPvEEEEEC2B7v160006ERSC_b, symObjAddr: 0x10404, symBinAddr: 0x100049578, symSize: 0xF0 }
  - { offsetInCU: 0x16C8D, offset: 0x47519, size: 0x8, addend: 0x0, symName: __ZNSt3__110unique_ptrINS_11__tree_nodeINS_12__value_typeINS_12basic_stringIcNS_11char_traitsIcEENS_9allocatorIcEEEEiEEPvEENS_22__tree_node_destructorINS6_ISB_EEEEEC2B7v160006ILb1EvEEPSB_NS_16__dependent_typeINS_27__unique_ptr_deleter_sfinaeISE_EEXT_EE20__good_rval_ref_typeE, symObjAddr: 0x104F4, symBinAddr: 0x100049668, symSize: 0x21C }
  - { offsetInCU: 0x16CE3, offset: 0x4756F, size: 0x8, addend: 0x0, symName: __ZNSt3__117__compressed_pairIPNS_11__tree_nodeINS_12__value_typeINS_12basic_stringIcNS_11char_traitsIcEENS_9allocatorIcEEEEiEEPvEENS_22__tree_node_destructorINS6_ISB_EEEEEC1B7v160006IRSC_SF_EEOT_OT0_, symObjAddr: 0x10710, symBinAddr: 0x100049884, symSize: 0x3C }
  - { offsetInCU: 0x16D39, offset: 0x475C5, size: 0x8, addend: 0x0, symName: __ZNSt3__117__compressed_pairIPNS_11__tree_nodeINS_12__value_typeINS_12basic_stringIcNS_11char_traitsIcEENS_9allocatorIcEEEEiEEPvEENS_22__tree_node_destructorINS6_ISB_EEEEEC2B7v160006IRSC_SF_EEOT_OT0_, symObjAddr: 0x1074C, symBinAddr: 0x1000498C0, symSize: 0x48 }
  - { offsetInCU: 0x16D8F, offset: 0x4761B, size: 0x8, addend: 0x0, symName: __ZNSt3__122__compressed_pair_elemIPNS_11__tree_nodeINS_12__value_typeINS_12basic_stringIcNS_11char_traitsIcEENS_9allocatorIcEEEEiEEPvEELi0ELb0EEC2B7v160006IRSC_vEEOT_, symObjAddr: 0x10794, symBinAddr: 0x100049908, symSize: 0xB0 }
  - { offsetInCU: 0x16DD0, offset: 0x4765C, size: 0x8, addend: 0x0, symName: __ZNSt3__122__compressed_pair_elemINS_22__tree_node_destructorINS_9allocatorINS_11__tree_nodeINS_12__value_typeINS_12basic_stringIcNS_11char_traitsIcEENS2_IcEEEEiEEPvEEEEEELi1ELb0EEC2B7v160006ISE_vEEOT_, symObjAddr: 0x10844, symBinAddr: 0x1000499B8, symSize: 0x38 }
  - { offsetInCU: 0x16E11, offset: 0x4769D, size: 0x8, addend: 0x0, symName: __ZNSt3__19allocatorINS_11__tree_nodeINS_12__value_typeINS_12basic_stringIcNS_11char_traitsIcEENS0_IcEEEEiEEPvEEE9constructB7v160006INS_4pairIKS7_iEEJRS7_RiEEEvPT_DpOT0_, symObjAddr: 0x1087C, symBinAddr: 0x1000499F0, symSize: 0x38 }
  - { offsetInCU: 0x16E79, offset: 0x47705, size: 0x8, addend: 0x0, symName: __ZNSt3__14pairIKNS_12basic_stringIcNS_11char_traitsIcEENS_9allocatorIcEEEEiEC1B7v160006IRS6_RiLPv0EEEOT_OT0_, symObjAddr: 0x108B4, symBinAddr: 0x100049A28, symSize: 0x3C }
  - { offsetInCU: 0x16ED6, offset: 0x47762, size: 0x8, addend: 0x0, symName: __ZNSt3__14pairIKNS_12basic_stringIcNS_11char_traitsIcEENS_9allocatorIcEEEEiEC2B7v160006IRS6_RiLPv0EEEOT_OT0_, symObjAddr: 0x108F0, symBinAddr: 0x100049A64, symSize: 0x11C }
  - { offsetInCU: 0x16F33, offset: 0x477BF, size: 0x8, addend: 0x0, symName: __ZNKSt3__117__compressed_pairIPNS_11__tree_nodeINS_12__value_typeINS_12basic_stringIcNS_11char_traitsIcEENS_9allocatorIcEEEEiEEPvEENS_22__tree_node_destructorINS6_ISB_EEEEE5firstB7v160006Ev, symObjAddr: 0x10A68, symBinAddr: 0x100049B80, symSize: 0x24 }
  - { offsetInCU: 0x16F57, offset: 0x477E3, size: 0x8, addend: 0x0, symName: __ZNKSt3__122__compressed_pair_elemIPNS_11__tree_nodeINS_12__value_typeINS_12basic_stringIcNS_11char_traitsIcEENS_9allocatorIcEEEEiEEPvEELi0ELb0EE5__getB7v160006Ev, symObjAddr: 0x10A8C, symBinAddr: 0x100049BA4, symSize: 0x14 }
  - { offsetInCU: 0x16F7B, offset: 0x47807, size: 0x8, addend: 0x0, symName: __ZNSt3__117__compressed_pairIPNS_11__tree_nodeINS_12__value_typeINS_12basic_stringIcNS_11char_traitsIcEENS_9allocatorIcEEEEiEEPvEENS_22__tree_node_destructorINS6_ISB_EEEEE6secondB7v160006Ev, symObjAddr: 0x10AA0, symBinAddr: 0x100049BB8, symSize: 0x28 }
  - { offsetInCU: 0x16F9F, offset: 0x4782B, size: 0x8, addend: 0x0, symName: __ZNSt3__122__compressed_pair_elemINS_22__tree_node_destructorINS_9allocatorINS_11__tree_nodeINS_12__value_typeINS_12basic_stringIcNS_11char_traitsIcEENS2_IcEEEEiEEPvEEEEEELi1ELb0EE5__getB7v160006Ev, symObjAddr: 0x10AC8, symBinAddr: 0x100049BE0, symSize: 0x14 }
  - { offsetInCU: 0x16FC3, offset: 0x4784F, size: 0x8, addend: 0x0, symName: __ZNSt3__16__treeINS_12__value_typeINS_12basic_stringIcNS_11char_traitsIcEENS_9allocatorIcEEEEiEENS_19__map_value_compareIS7_S8_NS_4lessIS7_EELb1EEENS5_IS8_EEE4sizeB7v160006Ev, symObjAddr: 0x11450, symBinAddr: 0x10004A554, symSize: 0x28 }
  - { offsetInCU: 0x16FE7, offset: 0x47873, size: 0x8, addend: 0x0, symName: __ZNKSt3__116__tree_node_baseIPvE15__parent_unsafeB7v160006Ev, symObjAddr: 0x11478, symBinAddr: 0x10004A57C, symSize: 0x64 }
  - { offsetInCU: 0x1700B, offset: 0x47897, size: 0x8, addend: 0x0, symName: __ZNSt3__116__tree_node_baseIPvE12__set_parentB7v160006EPS2_, symObjAddr: 0x11CC0, symBinAddr: 0x10004ADC4, symSize: 0x74 }
  - { offsetInCU: 0x1703E, offset: 0x478CA, size: 0x8, addend: 0x0, symName: __ZNSt3__117__compressed_pairImNS_19__map_value_compareINS_12basic_stringIcNS_11char_traitsIcEENS_9allocatorIcEEEENS_12__value_typeIS7_iEENS_4lessIS7_EELb1EEEE5firstB7v160006Ev, symObjAddr: 0x11D34, symBinAddr: 0x10004AE38, symSize: 0x24 }
  - { offsetInCU: 0x17062, offset: 0x478EE, size: 0x8, addend: 0x0, symName: __ZNSt3__122__compressed_pair_elemImLi0ELb0EE5__getB7v160006Ev, symObjAddr: 0x11D58, symBinAddr: 0x10004AE5C, symSize: 0x14 }
  - { offsetInCU: 0x17086, offset: 0x47912, size: 0x8, addend: 0x0, symName: __ZNSt3__117__compressed_pairIPNS_11__tree_nodeINS_12__value_typeINS_12basic_stringIcNS_11char_traitsIcEENS_9allocatorIcEEEEiEEPvEENS_22__tree_node_destructorINS6_ISB_EEEEE5firstB7v160006Ev, symObjAddr: 0x11D6C, symBinAddr: 0x10004AE70, symSize: 0x24 }
  - { offsetInCU: 0x170AA, offset: 0x47936, size: 0x8, addend: 0x0, symName: __ZNSt3__122__compressed_pair_elemIPNS_11__tree_nodeINS_12__value_typeINS_12basic_stringIcNS_11char_traitsIcEENS_9allocatorIcEEEEiEEPvEELi0ELb0EE5__getB7v160006Ev, symObjAddr: 0x11D90, symBinAddr: 0x10004AE94, symSize: 0x14 }
  - { offsetInCU: 0x170CE, offset: 0x4795A, size: 0x8, addend: 0x0, symName: __ZNSt3__110unique_ptrINS_11__tree_nodeINS_12__value_typeINS_12basic_stringIcNS_11char_traitsIcEENS_9allocatorIcEEEEiEEPvEENS_22__tree_node_destructorINS6_ISB_EEEEED2B7v160006Ev, symObjAddr: 0x11DA4, symBinAddr: 0x10004AEA8, symSize: 0x30 }
  - { offsetInCU: 0x170F6, offset: 0x47982, size: 0x8, addend: 0x0, symName: __ZNSt3__110unique_ptrINS_11__tree_nodeINS_12__value_typeINS_12basic_stringIcNS_11char_traitsIcEENS_9allocatorIcEEEEiEEPvEENS_22__tree_node_destructorINS6_ISB_EEEEE5resetB7v160006EPSB_, symObjAddr: 0x11DD4, symBinAddr: 0x10004AED8, symSize: 0xEC }
  - { offsetInCU: 0x17138, offset: 0x479C4, size: 0x8, addend: 0x0, symName: __ZNSt3__122__tree_node_destructorINS_9allocatorINS_11__tree_nodeINS_12__value_typeINS_12basic_stringIcNS_11char_traitsIcEENS1_IcEEEEiEEPvEEEEEclB7v160006EPSB_, symObjAddr: 0x11EC0, symBinAddr: 0x10004AFC4, symSize: 0x168 }
  - { offsetInCU: 0x1716B, offset: 0x479F7, size: 0x8, addend: 0x0, symName: __ZNSt3__115__tree_iteratorINS_12__value_typeINS_12basic_stringIcNS_11char_traitsIcEENS_9allocatorIcEEEEiEEPNS_11__tree_nodeIS8_PvEElEC2B7v160006ESC_, symObjAddr: 0x12128, symBinAddr: 0x10004B12C, symSize: 0x70 }
  - { offsetInCU: 0x171A2, offset: 0x47A2E, size: 0x8, addend: 0x0, symName: __ZNSt3__14pairINS_15__tree_iteratorINS_12__value_typeINS_12basic_stringIcNS_11char_traitsIcEENS_9allocatorIcEEEEiEEPNS_11__tree_nodeIS9_PvEElEEbEC2B7v160006ISE_RbLSB_0EEEOT_OT0_, symObjAddr: 0x12198, symBinAddr: 0x10004B19C, symSize: 0x120 }
  - { offsetInCU: 0x171FF, offset: 0x47A8B, size: 0x8, addend: 0x0, symName: __ZNSt3__14pairINS_14__map_iteratorINS_15__tree_iteratorINS_12__value_typeINS_12basic_stringIcNS_11char_traitsIcEENS_9allocatorIcEEEEiEEPNS_11__tree_nodeISA_PvEElEEEEbEC2B7v160006ISF_bLSC_0EEEONS0_IT_T0_EE, symObjAddr: 0x122B8, symBinAddr: 0x10004B2BC, symSize: 0x2E8 }
  - { offsetInCU: 0x17251, offset: 0x47ADD, size: 0x8, addend: 0x0, symName: __ZNSt3__114__map_iteratorINS_15__tree_iteratorINS_12__value_typeINS_12basic_stringIcNS_11char_traitsIcEENS_9allocatorIcEEEEiEEPNS_11__tree_nodeIS9_PvEElEEEC1B7v160006ESE_, symObjAddr: 0x125A0, symBinAddr: 0x10004B5A4, symSize: 0x238 }
  - { offsetInCU: 0x1728D, offset: 0x47B19, size: 0x8, addend: 0x0, symName: __ZNSt3__114__map_iteratorINS_15__tree_iteratorINS_12__value_typeINS_12basic_stringIcNS_11char_traitsIcEENS_9allocatorIcEEEEiEEPNS_11__tree_nodeIS9_PvEElEEEC2B7v160006ESE_, symObjAddr: 0x127D8, symBinAddr: 0x10004B7DC, symSize: 0x204 }
  - { offsetInCU: 0x172C9, offset: 0x47B55, size: 0x8, addend: 0x0, symName: __ZNSt3__16__treeINS_12__value_typeINS_12basic_stringIcNS_11char_traitsIcEENS_9allocatorIcEEEEiEENS_19__map_value_compareIS7_S8_NS_4lessIS7_EELb1EEENS5_IS8_EEE5beginB7v160006Ev, symObjAddr: 0x129DC, symBinAddr: 0x10004B9E0, symSize: 0x238 }
  - { offsetInCU: 0x172EE, offset: 0x47B7A, size: 0x8, addend: 0x0, symName: __ZNSt3__115__tree_iteratorINS_12__value_typeINS_12basic_stringIcNS_11char_traitsIcEENS_9allocatorIcEEEEiEEPNS_11__tree_nodeIS8_PvEElEC1B7v160006EPNS_15__tree_end_nodeIPNS_16__tree_node_baseISA_EEEE, symObjAddr: 0x12C14, symBinAddr: 0x10004BC18, symSize: 0x34 }
  - { offsetInCU: 0x17325, offset: 0x47BB1, size: 0x8, addend: 0x0, symName: __ZNSt3__115__tree_iteratorINS_12__value_typeINS_12basic_stringIcNS_11char_traitsIcEENS_9allocatorIcEEEEiEEPNS_11__tree_nodeIS8_PvEElEC2B7v160006EPNS_15__tree_end_nodeIPNS_16__tree_node_baseISA_EEEE, symObjAddr: 0x12C48, symBinAddr: 0x10004BC4C, symSize: 0x70 }
  - { offsetInCU: 0x1735C, offset: 0x47BE8, size: 0x8, addend: 0x0, symName: __ZNSt3__16__treeINS_12__value_typeINS_12basic_stringIcNS_11char_traitsIcEENS_9allocatorIcEEEEiEENS_19__map_value_compareIS7_S8_NS_4lessIS7_EELb1EEENS5_IS8_EEE3endB7v160006Ev, symObjAddr: 0x12CB8, symBinAddr: 0x10004BCBC, symSize: 0x204 }
  - { offsetInCU: 0x17381, offset: 0x47C0D, size: 0x8, addend: 0x0, symName: __ZNSt3__115__tree_iteratorINS_12__value_typeINS_12basic_stringIcNS_11char_traitsIcEENS_9allocatorIcEEEEiEEPNS_11__tree_nodeIS8_PvEElEppB7v160006Ev, symObjAddr: 0x12FA8, symBinAddr: 0x10004BFAC, symSize: 0xA8 }
  - { offsetInCU: 0x173A5, offset: 0x47C31, size: 0x8, addend: 0x0, symName: __ZNKSt3__115__tree_iteratorINS_12__value_typeINS_12basic_stringIcNS_11char_traitsIcEENS_9allocatorIcEEEEiEEPNS_11__tree_nodeIS8_PvEElEptB7v160006Ev, symObjAddr: 0x13248, symBinAddr: 0x10004C24C, symSize: 0x2C }
  - { offsetInCU: 0x173C9, offset: 0x47C55, size: 0x8, addend: 0x0, symName: __ZNSt3__114pointer_traitsIPNS_12__value_typeINS_12basic_stringIcNS_11char_traitsIcEENS_9allocatorIcEEEEiEEE10pointer_toB7v160006ERS8_, symObjAddr: 0x13274, symBinAddr: 0x10004C278, symSize: 0x14 }
  - { offsetInCU: 0x173EB, offset: 0x47C77, size: 0x8, addend: 0x0, symName: __ZNKSt3__115__tree_iteratorINS_12__value_typeINS_12basic_stringIcNS_11char_traitsIcEENS_9allocatorIcEEEEiEEPNS_11__tree_nodeIS8_PvEElE8__get_npB7v160006Ev, symObjAddr: 0x13288, symBinAddr: 0x10004C28C, symSize: 0x60 }
  - { offsetInCU: 0x17414, offset: 0x47CA0, size: 0x8, addend: 0x0, symName: __ZNSt3__16vectorIiNS_9allocatorIiEEE11__make_iterB7v160006EPi, symObjAddr: 0x14EF4, symBinAddr: 0x10004C2EC, symSize: 0x200 }
  - { offsetInCU: 0x17449, offset: 0x47CD5, size: 0x8, addend: 0x0, symName: __ZNSt3__111__wrap_iterIPiEC1B7v160006EPKvS1_, symObjAddr: 0x150F4, symBinAddr: 0x10004C4EC, symSize: 0x3C }
  - { offsetInCU: 0x1748D, offset: 0x47D19, size: 0x8, addend: 0x0, symName: __ZNSt3__111__wrap_iterIPiEC2B7v160006EPKvS1_, symObjAddr: 0x15130, symBinAddr: 0x10004C528, symSize: 0x74 }
  - { offsetInCU: 0x174D1, offset: 0x47D5D, size: 0x8, addend: 0x0, symName: __ZNSt3__16vectorIiNS_9allocatorIiEEEC2INS_11__wrap_iterIPiEELi0EEET_S8_, symObjAddr: 0x151A4, symBinAddr: 0x10004C59C, symSize: 0x700 }
  - { offsetInCU: 0x1755D, offset: 0x47DE9, size: 0x8, addend: 0x0, symName: __ZNSt3__16vectorIiNS_9allocatorIiEEE18__construct_at_endINS_11__wrap_iterIPiEELi0EEEvT_S8_m, symObjAddr: 0x1630C, symBinAddr: 0x10004CFEC, symSize: 0x548 }
  - { offsetInCU: 0x175DD, offset: 0x47E69, size: 0x8, addend: 0x0, symName: __ZNKSt3__111__wrap_iterIPiE4baseB7v160006Ev, symObjAddr: 0x171E4, symBinAddr: 0x10004D7F0, symSize: 0x60 }
  - { offsetInCU: 0x1761A, offset: 0x47EA6, size: 0x8, addend: 0x0, symName: __ZNKSt3__111__wrap_iterIPiEdeB7v160006Ev, symObjAddr: 0x188E4, symBinAddr: 0x10004DE40, symSize: 0x60 }
  - { offsetInCU: 0x1763E, offset: 0x47ECA, size: 0x8, addend: 0x0, symName: __ZNSt3__111__wrap_iterIPiEppB7v160006Ev, symObjAddr: 0x18944, symBinAddr: 0x10004DEA0, symSize: 0x68 }
  - { offsetInCU: 0x17671, offset: 0x47EFD, size: 0x8, addend: 0x0, symName: __ZNSt3__116_UnwrapAlgPolicyIRNS_6__lessINS_4pairI8rangeNumbEES4_EEE10__get_compB7v160006ES6_, symObjAddr: 0x1B2F8, symBinAddr: 0x10004EC8C, symSize: 0x14 }
  - { offsetInCU: 0x17693, offset: 0x47F1F, size: 0x8, addend: 0x0, symName: __ZNKSt3__16__lessINS_4pairI8rangeNumbEES3_EclB7v160006ERKS3_S6_, symObjAddr: 0x1D1E0, symBinAddr: 0x100050B74, symSize: 0x34 }
  - { offsetInCU: 0x176D3, offset: 0x47F5F, size: 0x8, addend: 0x0, symName: __ZNSt3__18_IterOpsINS_17_ClassicAlgPolicyEE9iter_swapB7v160006IRPNS_4pairI8rangeNumbEES8_EEvOT_OT0_, symObjAddr: 0x1D214, symBinAddr: 0x100050BA8, symSize: 0xB0 }
  - { offsetInCU: 0x17715, offset: 0x47FA1, size: 0x8, addend: 0x0, symName: __ZNK8rangeNumltERKS_, symObjAddr: 0x1EE28, symBinAddr: 0x1000527BC, symSize: 0x200 }
  - { offsetInCU: 0x17747, offset: 0x47FD3, size: 0x8, addend: 0x0, symName: __ZNSt3__14pairI8rangeNumbE4swapB7v160006ERS2_, symObjAddr: 0x1F080, symBinAddr: 0x100052A14, symSize: 0x44 }
  - { offsetInCU: 0x1777A, offset: 0x48006, size: 0x8, addend: 0x0, symName: __ZNSt3__18_IterOpsINS_17_ClassicAlgPolicyEE11__iter_moveB7v160006IRPNS_4pairI8rangeNumbEEEENS_9enable_ifIXsr12is_referenceIDTdeclsr3stdE7declvalIRT_EEEEE5valueEDTclsr3stdE4movedeclsr3stdE7declvalISB_EEEEE4typeEOSA_, symObjAddr: 0x1FAA4, symBinAddr: 0x100053438, symSize: 0x6C }
  - { offsetInCU: 0x177A5, offset: 0x48031, size: 0x8, addend: 0x0, symName: __ZNSt3__14pairI8rangeNumbEaSB7v160006EOS2_, symObjAddr: 0x1FB10, symBinAddr: 0x1000534A4, symSize: 0x118 }
  - { offsetInCU: 0x177D8, offset: 0x48064, size: 0x8, addend: 0x0, symName: __ZNSt3__18_IterOpsINS_17_ClassicAlgPolicyEE25__validate_iter_referenceB7v160006IRPNS_4pairI8rangeNumbEEEEvv, symObjAddr: 0x1FC28, symBinAddr: 0x1000535BC, symSize: 0x4 }
  - { offsetInCU: 0x177F5, offset: 0x48081, size: 0x8, addend: 0x0, symName: __ZNSt3__18_IterOpsINS_17_ClassicAlgPolicyEE4nextB7v160006IPNS_4pairI8rangeNumbEEEET_S8_S8_, symObjAddr: 0x1FC2C, symBinAddr: 0x1000535C0, symSize: 0x18 }
  - { offsetInCU: 0x1782A, offset: 0x480B6, size: 0x8, addend: 0x0, symName: __ZNSt3__118__unwrap_iter_implINS_11__wrap_iterIPNS_4pairI8rangeNumbEEEELb1EE8__unwrapB7v160006ES6_, symObjAddr: 0x22070, symBinAddr: 0x100055A04, symSize: 0x1F0 }
  - { offsetInCU: 0x1785A, offset: 0x480E6, size: 0x8, addend: 0x0, symName: __ZNSt3__119__to_address_helperINS_11__wrap_iterIPNS_4pairI8rangeNumbEEEEvE6__callB7v160006ERKS6_, symObjAddr: 0x22284, symBinAddr: 0x100055C18, symSize: 0x200 }
  - { offsetInCU: 0x1787D, offset: 0x48109, size: 0x8, addend: 0x0, symName: __ZNSt3__114pointer_traitsINS_11__wrap_iterIPNS_4pairI8rangeNumbEEEEE10to_addressB7v160006ES6_, symObjAddr: 0x22484, symBinAddr: 0x100055E18, symSize: 0x1F4 }
  - { offsetInCU: 0x178C7, offset: 0x48153, size: 0x8, addend: 0x0, symName: __ZNSt3__16vectorINS_4pairI8rangeNumbEENS_9allocatorIS3_EEE22__construct_one_at_endB7v160006IJRS2_bEEEvDpOT_, symObjAddr: 0x2795C, symBinAddr: 0x10005600C, symSize: 0x374 }
  - { offsetInCU: 0x17930, offset: 0x481BC, size: 0x8, addend: 0x0, symName: __ZNSt3__16vectorINS_4pairI8rangeNumbEENS_9allocatorIS3_EEE24__emplace_back_slow_pathIJRS2_bEEEvDpOT_, symObjAddr: 0x27CD0, symBinAddr: 0x100056380, symSize: 0x3C8 }
  - { offsetInCU: 0x179AB, offset: 0x48237, size: 0x8, addend: 0x0, symName: __ZNSt3__116allocator_traitsINS_9allocatorINS_4pairI8rangeNumbEEEEE9constructB7v160006IS4_JRS3_bEvEEvRS5_PT_DpOT0_, symObjAddr: 0x28098, symBinAddr: 0x100056748, symSize: 0x3C }
  - { offsetInCU: 0x17A17, offset: 0x482A3, size: 0x8, addend: 0x0, symName: __ZNSt3__19allocatorINS_4pairI8rangeNumbEEE9constructB7v160006IS3_JRS2_bEEEvPT_DpOT0_, symObjAddr: 0x280D4, symBinAddr: 0x100056784, symSize: 0x38 }
  - { offsetInCU: 0x17A7F, offset: 0x4830B, size: 0x8, addend: 0x0, symName: __ZNSt3__14pairI8rangeNumbEC1B7v160006IRS1_bLPv0EEEOT_OT0_, symObjAddr: 0x2810C, symBinAddr: 0x1000567BC, symSize: 0x3C }
  - { offsetInCU: 0x17ADC, offset: 0x48368, size: 0x8, addend: 0x0, symName: __ZNSt3__14pairI8rangeNumbEC2B7v160006IRS1_bLPv0EEEOT_OT0_, symObjAddr: 0x28148, symBinAddr: 0x1000567F8, symSize: 0x120 }
  - { offsetInCU: 0x17B39, offset: 0x483C5, size: 0x8, addend: 0x0, symName: __ZNSt3__16vectorIiNS_9allocatorIiEEE22__construct_one_at_endB7v160006IJRiEEEvDpOT_, symObjAddr: 0x284F8, symBinAddr: 0x100056918, symSize: 0x36C }
  - { offsetInCU: 0x17B8D, offset: 0x48419, size: 0x8, addend: 0x0, symName: __ZNSt3__16vectorIiNS_9allocatorIiEEE24__emplace_back_slow_pathIJRiEEEvDpOT_, symObjAddr: 0x28864, symBinAddr: 0x100056C84, symSize: 0x3C0 }
  - { offsetInCU: 0x17BF3, offset: 0x4847F, size: 0x8, addend: 0x0, symName: __ZNSt3__16vectorIiNS_9allocatorIiEEE4backB7v160006Ev, symObjAddr: 0x28C24, symBinAddr: 0x100057044, symSize: 0x68 }
...
